
main.elf:     file format elf32-littleriscv


Disassembly of section .text:

00000000 <_isr_handler>:
       0:	0080006f          	j	8 <_isr_routine>
       4:	1440006f          	j	148 <_start>

00000008 <_isr_routine>:
       8:	f8010113          	addi	sp,sp,-128
       c:	00112023          	sw	ra,0(sp)
      10:	00312423          	sw	gp,8(sp)
      14:	00412623          	sw	tp,12(sp)
      18:	00512823          	sw	t0,16(sp)
      1c:	00612a23          	sw	t1,20(sp)
      20:	00712c23          	sw	t2,24(sp)
      24:	00812e23          	sw	s0,28(sp)
      28:	02912023          	sw	s1,32(sp)
      2c:	02a12223          	sw	a0,36(sp)
      30:	02b12423          	sw	a1,40(sp)
      34:	02c12623          	sw	a2,44(sp)
      38:	02d12823          	sw	a3,48(sp)
      3c:	02e12a23          	sw	a4,52(sp)
      40:	02f12c23          	sw	a5,56(sp)
      44:	03012e23          	sw	a6,60(sp)
      48:	05112023          	sw	a7,64(sp)
      4c:	05212223          	sw	s2,68(sp)
      50:	05312423          	sw	s3,72(sp)
      54:	05412623          	sw	s4,76(sp)
      58:	05512823          	sw	s5,80(sp)
      5c:	05612a23          	sw	s6,84(sp)
      60:	05712c23          	sw	s7,88(sp)
      64:	05812e23          	sw	s8,92(sp)
      68:	07912023          	sw	s9,96(sp)
      6c:	07a12223          	sw	s10,100(sp)
      70:	07b12423          	sw	s11,104(sp)
      74:	07c12623          	sw	t3,108(sp)
      78:	07d12823          	sw	t4,112(sp)
      7c:	07e12a23          	sw	t5,116(sp)
      80:	07f12c23          	sw	t6,120(sp)
      84:	342022f3          	csrr	t0,mcause
      88:	80000337          	lui	t1,0x80000
      8c:	02536463          	bltu	t1,t0,b4 <external_irq>
      90:	00028833          	add	a6,t0,zero
      94:	00b00313          	li	t1,11
      98:	00628463          	beq	t0,t1,a0 <skip_init_args>
      9c:	34102573          	csrr	a0,mepc

000000a0 <skip_init_args>:
      a0:	258000ef          	jal	2f8 <handle_exception>
      a4:	341022f3          	csrr	t0,mepc
      a8:	00428293          	addi	t0,t0,4
      ac:	34129073          	csrw	mepc,t0
      b0:	0180006f          	j	c8 <restore>

000000b4 <external_irq>:
      b4:	800002b7          	lui	t0,0x80000
      b8:	fff28293          	addi	t0,t0,-1 # 7fffffff <_stack_end+0x7fefc543>
      bc:	34202373          	csrr	t1,mcause
      c0:	0062f533          	and	a0,t0,t1
      c4:	401000ef          	jal	cc4 <handle_interrupt>

000000c8 <restore>:
      c8:	00012083          	lw	ra,0(sp)
      cc:	00812183          	lw	gp,8(sp)
      d0:	00c12203          	lw	tp,12(sp)
      d4:	01012283          	lw	t0,16(sp)
      d8:	01412303          	lw	t1,20(sp)
      dc:	01812383          	lw	t2,24(sp)
      e0:	01c12403          	lw	s0,28(sp)
      e4:	02012483          	lw	s1,32(sp)
      e8:	02412503          	lw	a0,36(sp)
      ec:	02812583          	lw	a1,40(sp)
      f0:	02c12603          	lw	a2,44(sp)
      f4:	03012683          	lw	a3,48(sp)
      f8:	03412703          	lw	a4,52(sp)
      fc:	03812783          	lw	a5,56(sp)
     100:	03c12803          	lw	a6,60(sp)
     104:	04012883          	lw	a7,64(sp)
     108:	04412903          	lw	s2,68(sp)
     10c:	04812983          	lw	s3,72(sp)
     110:	04c12a03          	lw	s4,76(sp)
     114:	05012a83          	lw	s5,80(sp)
     118:	05412b03          	lw	s6,84(sp)
     11c:	05812b83          	lw	s7,88(sp)
     120:	05c12c03          	lw	s8,92(sp)
     124:	06012c83          	lw	s9,96(sp)
     128:	06412d03          	lw	s10,100(sp)
     12c:	06812d83          	lw	s11,104(sp)
     130:	06c12e03          	lw	t3,108(sp)
     134:	07012e83          	lw	t4,112(sp)
     138:	07412f03          	lw	t5,116(sp)
     13c:	07812f83          	lw	t6,120(sp)
     140:	08010113          	addi	sp,sp,128
     144:	30200073          	mret

00000148 <_start>:
     148:	30401073          	csrw	mie,zero
     14c:	00104117          	auipc	sp,0x104
     150:	97010113          	addi	sp,sp,-1680 # 103abc <_stack_end>
     154:	00003197          	auipc	gp,0x3
     158:	85918193          	addi	gp,gp,-1959 # 29ad <__global_pointer>
     15c:	00002517          	auipc	a0,0x2
     160:	e5850513          	addi	a0,a0,-424 # 1fb4 <welcome_msg>
     164:	00400893          	li	a7,4
     168:	00000073          	ecall
     16c:	269010ef          	jal	1bd4 <main>

00000170 <loop>:
     170:	0000006f          	j	170 <loop>

00000174 <enable_interrupt>:
     174:	00100293          	li	t0,1
     178:	01029293          	slli	t0,t0,0x10
     17c:	3042a073          	csrs	mie,t0
     180:	00100293          	li	t0,1
     184:	00329293          	slli	t0,t0,0x3
     188:	3002a073          	csrs	mstatus,t0
     18c:	00008067          	ret

00000190 <printc>:
     190:	04000737          	lui	a4,0x4000
     194:	04470713          	addi	a4,a4,68 # 4000044 <_stack_end+0x3efc588>
     198:	000106b7          	lui	a3,0x10
     19c:	00072783          	lw	a5,0(a4)
     1a0:	fed7eee3          	bltu	a5,a3,19c <printc+0xc>
     1a4:	040007b7          	lui	a5,0x4000
     1a8:	04a7a023          	sw	a0,64(a5) # 4000040 <_stack_end+0x3efc584>
     1ac:	00008067          	ret

000001b0 <print>:
     1b0:	00054603          	lbu	a2,0(a0)
     1b4:	02060863          	beqz	a2,1e4 <print+0x34>
     1b8:	04000737          	lui	a4,0x4000
     1bc:	040005b7          	lui	a1,0x4000
     1c0:	04470713          	addi	a4,a4,68 # 4000044 <_stack_end+0x3efc588>
     1c4:	000106b7          	lui	a3,0x10
     1c8:	04058593          	addi	a1,a1,64 # 4000040 <_stack_end+0x3efc584>
     1cc:	00072783          	lw	a5,0(a4)
     1d0:	fed7eee3          	bltu	a5,a3,1cc <print+0x1c>
     1d4:	00c5a023          	sw	a2,0(a1)
     1d8:	00154603          	lbu	a2,1(a0)
     1dc:	00150513          	addi	a0,a0,1
     1e0:	fe0616e3          	bnez	a2,1cc <print+0x1c>
     1e4:	00008067          	ret

000001e8 <print_dec>:
     1e8:	3b9ad737          	lui	a4,0x3b9ad
     1ec:	040006b7          	lui	a3,0x4000
     1f0:	04000337          	lui	t1,0x4000
     1f4:	00a00593          	li	a1,10
     1f8:	00000793          	li	a5,0
     1fc:	a0070713          	addi	a4,a4,-1536 # 3b9aca00 <_stack_end+0x3b8a8f44>
     200:	04468693          	addi	a3,a3,68 # 4000044 <_stack_end+0x3efc588>
     204:	00010637          	lui	a2,0x10
     208:	04030313          	addi	t1,t1,64 # 4000040 <_stack_end+0x3efc584>
     20c:	00a00893          	li	a7,10
     210:	04e57063          	bgeu	a0,a4,250 <print_dec+0x68>
     214:	02079e63          	bnez	a5,250 <print_dec+0x68>
     218:	fff58593          	addi	a1,a1,-1
     21c:	02e57533          	remu	a0,a0,a4
     220:	03175733          	divu	a4,a4,a7
     224:	fe0596e3          	bnez	a1,210 <print_dec+0x28>
     228:	02079263          	bnez	a5,24c <print_dec+0x64>
     22c:	04000737          	lui	a4,0x4000
     230:	04470713          	addi	a4,a4,68 # 4000044 <_stack_end+0x3efc588>
     234:	000106b7          	lui	a3,0x10
     238:	00072783          	lw	a5,0(a4)
     23c:	fed7eee3          	bltu	a5,a3,238 <print_dec+0x50>
     240:	040007b7          	lui	a5,0x4000
     244:	03000713          	li	a4,48
     248:	04e7a023          	sw	a4,64(a5) # 4000040 <_stack_end+0x3efc584>
     24c:	00008067          	ret
     250:	02e55833          	divu	a6,a0,a4
     254:	03080813          	addi	a6,a6,48
     258:	0ff87813          	zext.b	a6,a6
     25c:	0006a783          	lw	a5,0(a3) # 10000 <__global_pointer+0xd653>
     260:	fec7eee3          	bltu	a5,a2,25c <print_dec+0x74>
     264:	01032023          	sw	a6,0(t1)
     268:	00100793          	li	a5,1
     26c:	fadff06f          	j	218 <print_dec+0x30>

00000270 <print_hex32>:
     270:	04000737          	lui	a4,0x4000
     274:	04470713          	addi	a4,a4,68 # 4000044 <_stack_end+0x3efc588>
     278:	000106b7          	lui	a3,0x10
     27c:	00072783          	lw	a5,0(a4)
     280:	fed7eee3          	bltu	a5,a3,27c <print_hex32+0xc>
     284:	03000693          	li	a3,48
     288:	040007b7          	lui	a5,0x4000
     28c:	04000737          	lui	a4,0x4000
     290:	04d7a023          	sw	a3,64(a5) # 4000040 <_stack_end+0x3efc584>
     294:	04470713          	addi	a4,a4,68 # 4000044 <_stack_end+0x3efc588>
     298:	000106b7          	lui	a3,0x10
     29c:	00072783          	lw	a5,0(a4)
     2a0:	fed7eee3          	bltu	a5,a3,29c <print_hex32+0x2c>
     2a4:	04000837          	lui	a6,0x4000
     2a8:	04080813          	addi	a6,a6,64 # 4000040 <_stack_end+0x3efc584>
     2ac:	04000737          	lui	a4,0x4000
     2b0:	07800793          	li	a5,120
     2b4:	00f82023          	sw	a5,0(a6)
     2b8:	01c00613          	li	a2,28
     2bc:	00900313          	li	t1,9
     2c0:	04470713          	addi	a4,a4,68 # 4000044 <_stack_end+0x3efc588>
     2c4:	000106b7          	lui	a3,0x10
     2c8:	ffc00893          	li	a7,-4
     2cc:	00c557b3          	srl	a5,a0,a2
     2d0:	00f7f793          	andi	a5,a5,15
     2d4:	03778593          	addi	a1,a5,55
     2d8:	00f36463          	bltu	t1,a5,2e0 <print_hex32+0x70>
     2dc:	03078593          	addi	a1,a5,48
     2e0:	00072783          	lw	a5,0(a4)
     2e4:	fed7eee3          	bltu	a5,a3,2e0 <print_hex32+0x70>
     2e8:	00b82023          	sw	a1,0(a6)
     2ec:	ffc60613          	addi	a2,a2,-4 # fffc <__global_pointer+0xd64f>
     2f0:	fd161ee3          	bne	a2,a7,2cc <print_hex32+0x5c>
     2f4:	00008067          	ret

000002f8 <handle_exception>:
     2f8:	00200793          	li	a5,2
     2fc:	18f80863          	beq	a6,a5,48c <handle_exception+0x194>
     300:	00b00793          	li	a5,11
     304:	12f80063          	beq	a6,a5,424 <handle_exception+0x12c>
     308:	04000737          	lui	a4,0x4000
     30c:	14081463          	bnez	a6,454 <handle_exception+0x15c>
     310:	04000837          	lui	a6,0x4000
     314:	00002637          	lui	a2,0x2
     318:	24460613          	addi	a2,a2,580 # 2244 <digit27seg+0x24>
     31c:	00a00593          	li	a1,10
     320:	04470713          	addi	a4,a4,68 # 4000044 <_stack_end+0x3efc588>
     324:	000106b7          	lui	a3,0x10
     328:	04080813          	addi	a6,a6,64 # 4000040 <_stack_end+0x3efc584>
     32c:	00072783          	lw	a5,0(a4)
     330:	fed7eee3          	bltu	a5,a3,32c <handle_exception+0x34>
     334:	00b82023          	sw	a1,0(a6)
     338:	00164583          	lbu	a1,1(a2)
     33c:	00160613          	addi	a2,a2,1
     340:	fe0596e3          	bnez	a1,32c <handle_exception+0x34>
     344:	04000737          	lui	a4,0x4000
     348:	04000837          	lui	a6,0x4000
     34c:	00002637          	lui	a2,0x2
     350:	2bc60613          	addi	a2,a2,700 # 22bc <digit27seg+0x9c>
     354:	04500593          	li	a1,69
     358:	04470713          	addi	a4,a4,68 # 4000044 <_stack_end+0x3efc588>
     35c:	000106b7          	lui	a3,0x10
     360:	04080813          	addi	a6,a6,64 # 4000040 <_stack_end+0x3efc584>
     364:	00072783          	lw	a5,0(a4)
     368:	fed7eee3          	bltu	a5,a3,364 <handle_exception+0x6c>
     36c:	00b82023          	sw	a1,0(a6)
     370:	00164583          	lbu	a1,1(a2)
     374:	00160613          	addi	a2,a2,1
     378:	fe0596e3          	bnez	a1,364 <handle_exception+0x6c>
     37c:	04000737          	lui	a4,0x4000
     380:	04470713          	addi	a4,a4,68 # 4000044 <_stack_end+0x3efc588>
     384:	000106b7          	lui	a3,0x10
     388:	00072783          	lw	a5,0(a4)
     38c:	fed7eee3          	bltu	a5,a3,388 <handle_exception+0x90>
     390:	03000693          	li	a3,48
     394:	040007b7          	lui	a5,0x4000
     398:	04000737          	lui	a4,0x4000
     39c:	04d7a023          	sw	a3,64(a5) # 4000040 <_stack_end+0x3efc584>
     3a0:	04470713          	addi	a4,a4,68 # 4000044 <_stack_end+0x3efc588>
     3a4:	000106b7          	lui	a3,0x10
     3a8:	00072783          	lw	a5,0(a4)
     3ac:	fed7eee3          	bltu	a5,a3,3a8 <handle_exception+0xb0>
     3b0:	04000837          	lui	a6,0x4000
     3b4:	04080813          	addi	a6,a6,64 # 4000040 <_stack_end+0x3efc584>
     3b8:	04000737          	lui	a4,0x4000
     3bc:	07800793          	li	a5,120
     3c0:	00f82023          	sw	a5,0(a6)
     3c4:	01c00613          	li	a2,28
     3c8:	00900313          	li	t1,9
     3cc:	04470713          	addi	a4,a4,68 # 4000044 <_stack_end+0x3efc588>
     3d0:	000106b7          	lui	a3,0x10
     3d4:	ffc00893          	li	a7,-4
     3d8:	00c557b3          	srl	a5,a0,a2
     3dc:	00f7f793          	andi	a5,a5,15
     3e0:	03778593          	addi	a1,a5,55
     3e4:	00f36463          	bltu	t1,a5,3ec <handle_exception+0xf4>
     3e8:	03078593          	addi	a1,a5,48
     3ec:	00072783          	lw	a5,0(a4)
     3f0:	fed7eee3          	bltu	a5,a3,3ec <handle_exception+0xf4>
     3f4:	00b82023          	sw	a1,0(a6)
     3f8:	ffc60613          	addi	a2,a2,-4
     3fc:	fd161ee3          	bne	a2,a7,3d8 <handle_exception+0xe0>
     400:	04000737          	lui	a4,0x4000
     404:	04470713          	addi	a4,a4,68 # 4000044 <_stack_end+0x3efc588>
     408:	000106b7          	lui	a3,0x10
     40c:	00072783          	lw	a5,0(a4)
     410:	fed7eee3          	bltu	a5,a3,40c <handle_exception+0x114>
     414:	040007b7          	lui	a5,0x4000
     418:	00a00713          	li	a4,10
     41c:	04e7a023          	sw	a4,64(a5) # 4000040 <_stack_end+0x3efc584>
     420:	0000006f          	j	420 <handle_exception+0x128>
     424:	00400793          	li	a5,4
     428:	0af88063          	beq	a7,a5,4c8 <handle_exception+0x1d0>
     42c:	0d089a63          	bne	a7,a6,500 <handle_exception+0x208>
     430:	04000737          	lui	a4,0x4000
     434:	04470713          	addi	a4,a4,68 # 4000044 <_stack_end+0x3efc588>
     438:	000106b7          	lui	a3,0x10
     43c:	00072783          	lw	a5,0(a4)
     440:	fed7eee3          	bltu	a5,a3,43c <handle_exception+0x144>
     444:	040007b7          	lui	a5,0x4000
     448:	0ff57513          	zext.b	a0,a0
     44c:	04a7a023          	sw	a0,64(a5) # 4000040 <_stack_end+0x3efc584>
     450:	00008067          	ret
     454:	04000837          	lui	a6,0x4000
     458:	00002637          	lui	a2,0x2
     45c:	29c60613          	addi	a2,a2,668 # 229c <digit27seg+0x7c>
     460:	00a00593          	li	a1,10
     464:	04470713          	addi	a4,a4,68
     468:	000106b7          	lui	a3,0x10
     46c:	04080813          	addi	a6,a6,64 # 4000040 <_stack_end+0x3efc584>
     470:	00072783          	lw	a5,0(a4)
     474:	fed7eee3          	bltu	a5,a3,470 <handle_exception+0x178>
     478:	00b82023          	sw	a1,0(a6)
     47c:	00164583          	lbu	a1,1(a2)
     480:	00160613          	addi	a2,a2,1
     484:	fe0596e3          	bnez	a1,470 <handle_exception+0x178>
     488:	ebdff06f          	j	344 <handle_exception+0x4c>
     48c:	04000737          	lui	a4,0x4000
     490:	04000837          	lui	a6,0x4000
     494:	00002637          	lui	a2,0x2
     498:	27460613          	addi	a2,a2,628 # 2274 <digit27seg+0x54>
     49c:	00a00593          	li	a1,10
     4a0:	04470713          	addi	a4,a4,68 # 4000044 <_stack_end+0x3efc588>
     4a4:	000106b7          	lui	a3,0x10
     4a8:	04080813          	addi	a6,a6,64 # 4000040 <_stack_end+0x3efc584>
     4ac:	00072783          	lw	a5,0(a4)
     4b0:	fed7eee3          	bltu	a5,a3,4ac <handle_exception+0x1b4>
     4b4:	00b82023          	sw	a1,0(a6)
     4b8:	00164583          	lbu	a1,1(a2)
     4bc:	00160613          	addi	a2,a2,1
     4c0:	fe0596e3          	bnez	a1,4ac <handle_exception+0x1b4>
     4c4:	e81ff06f          	j	344 <handle_exception+0x4c>
     4c8:	00054603          	lbu	a2,0(a0)
     4cc:	02060a63          	beqz	a2,500 <handle_exception+0x208>
     4d0:	04000737          	lui	a4,0x4000
     4d4:	040005b7          	lui	a1,0x4000
     4d8:	04470713          	addi	a4,a4,68 # 4000044 <_stack_end+0x3efc588>
     4dc:	000106b7          	lui	a3,0x10
     4e0:	04058593          	addi	a1,a1,64 # 4000040 <_stack_end+0x3efc584>
     4e4:	00072783          	lw	a5,0(a4)
     4e8:	fed7eee3          	bltu	a5,a3,4e4 <handle_exception+0x1ec>
     4ec:	00c5a023          	sw	a2,0(a1)
     4f0:	00154603          	lbu	a2,1(a0)
     4f4:	00150513          	addi	a0,a0,1
     4f8:	fe0616e3          	bnez	a2,4e4 <handle_exception+0x1ec>
     4fc:	00008067          	ret
     500:	00008067          	ret

00000504 <nextprime>:
     504:	00200713          	li	a4,2
     508:	00050793          	mv	a5,a0
     50c:	02a74063          	blt	a4,a0,52c <nextprime+0x28>
     510:	00100513          	li	a0,1
     514:	00f05a63          	blez	a5,528 <nextprime+0x24>
     518:	fff78793          	addi	a5,a5,-1
     51c:	00f037b3          	snez	a5,a5
     520:	00278513          	addi	a0,a5,2
     524:	00008067          	ret
     528:	00008067          	ret
     52c:	00150793          	addi	a5,a0,1
     530:	0017e513          	ori	a0,a5,1
     534:	00300613          	li	a2,3
     538:	02c567b3          	rem	a5,a0,a2
     53c:	40155693          	srai	a3,a0,0x1
     540:	02078263          	beqz	a5,564 <nextprime+0x60>
     544:	00268693          	addi	a3,a3,2 # 10002 <__global_pointer+0xd655>
     548:	00300793          	li	a5,3
     54c:	00c0006f          	j	558 <nextprime+0x54>
     550:	02f56733          	rem	a4,a0,a5
     554:	00070863          	beqz	a4,564 <nextprime+0x60>
     558:	00178793          	addi	a5,a5,1
     55c:	fef69ae3          	bne	a3,a5,550 <nextprime+0x4c>
     560:	00008067          	ret
     564:	00250513          	addi	a0,a0,2
     568:	fd1ff06f          	j	538 <nextprime+0x34>

0000056c <generate_pattern>:
     56c:	000026b7          	lui	a3,0x2
     570:	1b06a783          	lw	a5,432(a3) # 21b0 <pattern_state>
     574:	41c65737          	lui	a4,0x41c65
     578:	e6d70713          	addi	a4,a4,-403 # 41c64e6d <_stack_end+0x41b613b1>
     57c:	02e787b3          	mul	a5,a5,a4
     580:	00003737          	lui	a4,0x3
     584:	03970713          	addi	a4,a4,57 # 3039 <__global_pointer+0x68c>
     588:	00e787b3          	add	a5,a5,a4
     58c:	0107d513          	srli	a0,a5,0x10
     590:	1af6a823          	sw	a5,432(a3)
     594:	3ff57513          	andi	a0,a0,1023
     598:	00008067          	ret

0000059c <set_leds>:
     59c:	3ff57513          	andi	a0,a0,1023
     5a0:	040007b7          	lui	a5,0x4000
     5a4:	00a7a023          	sw	a0,0(a5) # 4000000 <_stack_end+0x3efc544>
     5a8:	00008067          	ret

000005ac <reset_leds>:
     5ac:	040007b7          	lui	a5,0x4000
     5b0:	0007a023          	sw	zero,0(a5) # 4000000 <_stack_end+0x3efc544>
     5b4:	00008067          	ret

000005b8 <set_displays>:
     5b8:	00500793          	li	a5,5
     5bc:	02a7e863          	bltu	a5,a0,5ec <set_displays+0x34>
     5c0:	00900793          	li	a5,9
     5c4:	02b7e463          	bltu	a5,a1,5ec <set_displays+0x34>
     5c8:	000027b7          	lui	a5,0x2
     5cc:	22078793          	addi	a5,a5,544 # 2220 <digit27seg>
     5d0:	00400737          	lui	a4,0x400
     5d4:	00b787b3          	add	a5,a5,a1
     5d8:	0007c783          	lbu	a5,0(a5)
     5dc:	00570713          	addi	a4,a4,5 # 400005 <_stack_end+0x2fc549>
     5e0:	00e50533          	add	a0,a0,a4
     5e4:	00451513          	slli	a0,a0,0x4
     5e8:	00f50023          	sb	a5,0(a0)
     5ec:	00008067          	ret

000005f0 <get_sw>:
     5f0:	040007b7          	lui	a5,0x4000
     5f4:	0107a503          	lw	a0,16(a5) # 4000010 <_stack_end+0x3efc554>
     5f8:	3ff57513          	andi	a0,a0,1023
     5fc:	00008067          	ret

00000600 <get_btn>:
     600:	040007b7          	lui	a5,0x4000
     604:	0d07a503          	lw	a0,208(a5) # 40000d0 <_stack_end+0x3efc614>
     608:	00157513          	andi	a0,a0,1
     60c:	00008067          	ret

00000610 <display_current_room>:
     610:	fd010113          	addi	sp,sp,-48
     614:	02812423          	sw	s0,40(sp)
     618:	00002437          	lui	s0,0x2
     61c:	1b440413          	addi	s0,s0,436 # 21b4 <player>
     620:	00042703          	lw	a4,0(s0)
     624:	02912223          	sw	s1,36(sp)
     628:	000024b7          	lui	s1,0x2
     62c:	00371793          	slli	a5,a4,0x3
     630:	00e787b3          	add	a5,a5,a4
     634:	04848493          	addi	s1,s1,72 # 2048 <rooms>
     638:	00279793          	slli	a5,a5,0x2
     63c:	00f487b3          	add	a5,s1,a5
     640:	01912223          	sw	s9,4(sp)
     644:	00002537          	lui	a0,0x2
     648:	0007ac83          	lw	s9,0(a5)
     64c:	2d050513          	addi	a0,a0,720 # 22d0 <digit27seg+0xb0>
     650:	02112623          	sw	ra,44(sp)
     654:	03212023          	sw	s2,32(sp)
     658:	01312e23          	sw	s3,28(sp)
     65c:	0047a903          	lw	s2,4(a5)
     660:	0147a983          	lw	s3,20(a5)
     664:	01412c23          	sw	s4,24(sp)
     668:	01512a23          	sw	s5,20(sp)
     66c:	0107aa03          	lw	s4,16(a5)
     670:	00c7aa83          	lw	s5,12(a5)
     674:	01612823          	sw	s6,16(sp)
     678:	01712623          	sw	s7,12(sp)
     67c:	0087ab03          	lw	s6,8(a5)
     680:	01c7ab83          	lw	s7,28(a5)
     684:	01812423          	sw	s8,8(sp)
     688:	0207ac03          	lw	s8,32(a5)
     68c:	b25ff0ef          	jal	1b0 <print>
     690:	000c8513          	mv	a0,s9
     694:	b1dff0ef          	jal	1b0 <print>
     698:	00003537          	lui	a0,0x3
     69c:	01450513          	addi	a0,a0,20 # 3014 <__global_pointer+0x667>
     6a0:	b11ff0ef          	jal	1b0 <print>
     6a4:	00090513          	mv	a0,s2
     6a8:	b09ff0ef          	jal	1b0 <print>
     6ac:	00002937          	lui	s2,0x2
     6b0:	2d890513          	addi	a0,s2,728 # 22d8 <digit27seg+0xb8>
     6b4:	afdff0ef          	jal	1b0 <print>
     6b8:	00042783          	lw	a5,0(s0)
     6bc:	00800713          	li	a4,8
     6c0:	02f76063          	bltu	a4,a5,6e0 <display_current_room+0xd0>
     6c4:	00002737          	lui	a4,0x2
     6c8:	00279793          	slli	a5,a5,0x2
     6cc:	1dc70713          	addi	a4,a4,476 # 21dc <timeoutcount+0x4>
     6d0:	00e787b3          	add	a5,a5,a4
     6d4:	0007a783          	lw	a5,0(a5)
     6d8:	00078067          	jr	a5
     6dc:	22079e63          	bnez	a5,918 <__heap_size+0x118>
     6e0:	00002537          	lui	a0,0x2
     6e4:	48050513          	addi	a0,a0,1152 # 2480 <digit27seg+0x260>
     6e8:	ac9ff0ef          	jal	1b0 <print>
     6ec:	fff00793          	li	a5,-1
     6f0:	00fb0863          	beq	s6,a5,700 <display_current_room+0xf0>
     6f4:	00002537          	lui	a0,0x2
     6f8:	76450513          	addi	a0,a0,1892 # 2764 <digit27seg+0x544>
     6fc:	ab5ff0ef          	jal	1b0 <print>
     700:	fff00793          	li	a5,-1
     704:	00fa8863          	beq	s5,a5,714 <display_current_room+0x104>
     708:	00002537          	lui	a0,0x2
     70c:	76c50513          	addi	a0,a0,1900 # 276c <digit27seg+0x54c>
     710:	aa1ff0ef          	jal	1b0 <print>
     714:	fff00793          	li	a5,-1
     718:	00fa0863          	beq	s4,a5,728 <display_current_room+0x118>
     71c:	00002537          	lui	a0,0x2
     720:	77450513          	addi	a0,a0,1908 # 2774 <digit27seg+0x554>
     724:	a8dff0ef          	jal	1b0 <print>
     728:	fff00793          	li	a5,-1
     72c:	00f98863          	beq	s3,a5,73c <display_current_room+0x12c>
     730:	00002537          	lui	a0,0x2
     734:	77c50513          	addi	a0,a0,1916 # 277c <digit27seg+0x55c>
     738:	a79ff0ef          	jal	1b0 <print>
     73c:	02812403          	lw	s0,40(sp)
     740:	02c12083          	lw	ra,44(sp)
     744:	02412483          	lw	s1,36(sp)
     748:	01c12983          	lw	s3,28(sp)
     74c:	01812a03          	lw	s4,24(sp)
     750:	01412a83          	lw	s5,20(sp)
     754:	01012b03          	lw	s6,16(sp)
     758:	00c12b83          	lw	s7,12(sp)
     75c:	00812c03          	lw	s8,8(sp)
     760:	00412c83          	lw	s9,4(sp)
     764:	2d890513          	addi	a0,s2,728
     768:	02012903          	lw	s2,32(sp)
     76c:	03010113          	addi	sp,sp,48
     770:	a41ff06f          	j	1b0 <print>
     774:	00002537          	lui	a0,0x2
     778:	2dc50513          	addi	a0,a0,732 # 22dc <digit27seg+0xbc>
     77c:	a35ff0ef          	jal	1b0 <print>
     780:	001e8537          	lui	a0,0x1e8
     784:	48050513          	addi	a0,a0,1152 # 1e8480 <_stack_end+0xe49c4>
     788:	7fc010ef          	jal	1f84 <delay>
     78c:	00002537          	lui	a0,0x2
     790:	2fc50513          	addi	a0,a0,764 # 22fc <digit27seg+0xdc>
     794:	a1dff0ef          	jal	1b0 <print>
     798:	001e8537          	lui	a0,0x1e8
     79c:	48050513          	addi	a0,a0,1152 # 1e8480 <_stack_end+0xe49c4>
     7a0:	7e4010ef          	jal	1f84 <delay>
     7a4:	00002537          	lui	a0,0x2
     7a8:	32850513          	addi	a0,a0,808 # 2328 <digit27seg+0x108>
     7ac:	a05ff0ef          	jal	1b0 <print>
     7b0:	001e8537          	lui	a0,0x1e8
     7b4:	48050513          	addi	a0,a0,1152 # 1e8480 <_stack_end+0xe49c4>
     7b8:	7cc010ef          	jal	1f84 <delay>
     7bc:	00002537          	lui	a0,0x2
     7c0:	34850513          	addi	a0,a0,840 # 2348 <digit27seg+0x128>
     7c4:	9edff0ef          	jal	1b0 <print>
     7c8:	001e8537          	lui	a0,0x1e8
     7cc:	48050513          	addi	a0,a0,1152 # 1e8480 <_stack_end+0xe49c4>
     7d0:	7b4010ef          	jal	1f84 <delay>
     7d4:	00002537          	lui	a0,0x2
     7d8:	36850513          	addi	a0,a0,872 # 2368 <digit27seg+0x148>
     7dc:	9d5ff0ef          	jal	1b0 <print>
     7e0:	001e8537          	lui	a0,0x1e8
     7e4:	48050513          	addi	a0,a0,1152 # 1e8480 <_stack_end+0xe49c4>
     7e8:	79c010ef          	jal	1f84 <delay>
     7ec:	00002537          	lui	a0,0x2
     7f0:	38450513          	addi	a0,a0,900 # 2384 <digit27seg+0x164>
     7f4:	000f4437          	lui	s0,0xf4
     7f8:	9b9ff0ef          	jal	1b0 <print>
     7fc:	24040413          	addi	s0,s0,576 # f4240 <__global_pointer+0xf1893>
     800:	00040513          	mv	a0,s0
     804:	780010ef          	jal	1f84 <delay>
     808:	ff9ff06f          	j	800 <__heap_size>
     80c:	01442783          	lw	a5,20(s0)
     810:	16079063          	bnez	a5,970 <__heap_size+0x170>
     814:	00002537          	lui	a0,0x2
     818:	4b850513          	addi	a0,a0,1208 # 24b8 <digit27seg+0x298>
     81c:	995ff0ef          	jal	1b0 <print>
     820:	00989537          	lui	a0,0x989
     824:	68050513          	addi	a0,a0,1664 # 989680 <_stack_end+0x885bc4>
     828:	75c010ef          	jal	1f84 <delay>
     82c:	00002537          	lui	a0,0x2
     830:	4e050513          	addi	a0,a0,1248 # 24e0 <digit27seg+0x2c0>
     834:	97dff0ef          	jal	1b0 <print>
     838:	00989537          	lui	a0,0x989
     83c:	68050513          	addi	a0,a0,1664 # 989680 <_stack_end+0x885bc4>
     840:	744010ef          	jal	1f84 <delay>
     844:	00002537          	lui	a0,0x2
     848:	51050513          	addi	a0,a0,1296 # 2510 <digit27seg+0x2f0>
     84c:	965ff0ef          	jal	1b0 <print>
     850:	00042703          	lw	a4,0(s0)
     854:	00800793          	li	a5,8
     858:	e8f714e3          	bne	a4,a5,6e0 <display_current_room+0xd0>
     85c:	02c12083          	lw	ra,44(sp)
     860:	02812403          	lw	s0,40(sp)
     864:	02412483          	lw	s1,36(sp)
     868:	02012903          	lw	s2,32(sp)
     86c:	01c12983          	lw	s3,28(sp)
     870:	01812a03          	lw	s4,24(sp)
     874:	01412a83          	lw	s5,20(sp)
     878:	01012b03          	lw	s6,16(sp)
     87c:	00c12b83          	lw	s7,12(sp)
     880:	00812c03          	lw	s8,8(sp)
     884:	00412c83          	lw	s9,4(sp)
     888:	03010113          	addi	sp,sp,48
     88c:	00008067          	ret
     890:	0684a783          	lw	a5,104(s1)
     894:	12079263          	bnez	a5,9b8 <__heap_size+0x1b8>
     898:	00002537          	lui	a0,0x2
     89c:	5bc50513          	addi	a0,a0,1468 # 25bc <digit27seg+0x39c>
     8a0:	911ff0ef          	jal	1b0 <print>
     8a4:	00989537          	lui	a0,0x989
     8a8:	68050513          	addi	a0,a0,1664 # 989680 <_stack_end+0x885bc4>
     8ac:	6d8010ef          	jal	1f84 <delay>
     8b0:	00002537          	lui	a0,0x2
     8b4:	5f050513          	addi	a0,a0,1520 # 25f0 <digit27seg+0x3d0>
     8b8:	8f9ff0ef          	jal	1b0 <print>
     8bc:	00042703          	lw	a4,0(s0)
     8c0:	f95ff06f          	j	854 <__heap_size+0x54>
     8c4:	0a0b8263          	beqz	s7,968 <__heap_size+0x168>
     8c8:	120c0663          	beqz	s8,9f4 <__heap_size+0x1f4>
     8cc:	00002537          	lui	a0,0x2
     8d0:	49050513          	addi	a0,a0,1168 # 2490 <digit27seg+0x270>
     8d4:	8ddff0ef          	jal	1b0 <print>
     8d8:	00042703          	lw	a4,0(s0)
     8dc:	f79ff06f          	j	854 <__heap_size+0x54>
     8e0:	00842783          	lw	a5,8(s0)
     8e4:	0e079463          	bnez	a5,9cc <__heap_size+0x1cc>
     8e8:	00002537          	lui	a0,0x2
     8ec:	39c50513          	addi	a0,a0,924 # 239c <digit27seg+0x17c>
     8f0:	8c1ff0ef          	jal	1b0 <print>
     8f4:	00002537          	lui	a0,0x2
     8f8:	3dc50513          	addi	a0,a0,988 # 23dc <digit27seg+0x1bc>
     8fc:	8b5ff0ef          	jal	1b0 <print>
     900:	00042703          	lw	a4,0(s0)
     904:	f51ff06f          	j	854 <__heap_size+0x54>
     908:	01042703          	lw	a4,16(s0)
     90c:	0f84a783          	lw	a5,248(s1)
     910:	dc0706e3          	beqz	a4,6dc <display_current_room+0xcc>
     914:	10078663          	beqz	a5,a20 <__heap_size+0x220>
     918:	00002537          	lui	a0,0x2
     91c:	6cc50513          	addi	a0,a0,1740 # 26cc <digit27seg+0x4ac>
     920:	891ff0ef          	jal	1b0 <print>
     924:	00042703          	lw	a4,0(s0)
     928:	f2dff06f          	j	854 <__heap_size+0x54>
     92c:	01042783          	lw	a5,16(s0)
     930:	0a079863          	bnez	a5,9e0 <__heap_size+0x1e0>
     934:	00002537          	lui	a0,0x2
     938:	65050513          	addi	a0,a0,1616 # 2650 <digit27seg+0x430>
     93c:	875ff0ef          	jal	1b0 <print>
     940:	00042703          	lw	a4,0(s0)
     944:	f11ff06f          	j	854 <__heap_size+0x54>
     948:	00002537          	lui	a0,0x2
     94c:	6f450513          	addi	a0,a0,1780 # 26f4 <digit27seg+0x4d4>
     950:	861ff0ef          	jal	1b0 <print>
     954:	00002537          	lui	a0,0x2
     958:	73050513          	addi	a0,a0,1840 # 2730 <digit27seg+0x510>
     95c:	855ff0ef          	jal	1b0 <print>
     960:	00042703          	lw	a4,0(s0)
     964:	ef1ff06f          	j	854 <__heap_size+0x54>
     968:	d60c0ce3          	beqz	s8,6e0 <display_current_room+0xd0>
     96c:	f61ff06f          	j	8cc <__heap_size+0xcc>
     970:	00002537          	lui	a0,0x2
     974:	55450513          	addi	a0,a0,1364 # 2554 <digit27seg+0x334>
     978:	839ff0ef          	jal	1b0 <print>
     97c:	00002537          	lui	a0,0x2
     980:	57450513          	addi	a0,a0,1396 # 2574 <digit27seg+0x354>
     984:	82dff0ef          	jal	1b0 <print>
     988:	01842783          	lw	a5,24(s0)
     98c:	00100713          	li	a4,1
     990:	0ae78263          	beq	a5,a4,a34 <__heap_size+0x234>
     994:	00200713          	li	a4,2
     998:	0ae78863          	beq	a5,a4,a48 <__heap_size+0x248>
     99c:	00300713          	li	a4,3
     9a0:	fce790e3          	bne	a5,a4,960 <__heap_size+0x160>
     9a4:	00002537          	lui	a0,0x2
     9a8:	5ac50513          	addi	a0,a0,1452 # 25ac <digit27seg+0x38c>
     9ac:	805ff0ef          	jal	1b0 <print>
     9b0:	00042703          	lw	a4,0(s0)
     9b4:	ea1ff06f          	j	854 <__heap_size+0x54>
     9b8:	00002537          	lui	a0,0x2
     9bc:	62050513          	addi	a0,a0,1568 # 2620 <digit27seg+0x400>
     9c0:	ff0ff0ef          	jal	1b0 <print>
     9c4:	00042703          	lw	a4,0(s0)
     9c8:	e8dff06f          	j	854 <__heap_size+0x54>
     9cc:	00002537          	lui	a0,0x2
     9d0:	40850513          	addi	a0,a0,1032 # 2408 <digit27seg+0x1e8>
     9d4:	fdcff0ef          	jal	1b0 <print>
     9d8:	00042703          	lw	a4,0(s0)
     9dc:	e79ff06f          	j	854 <__heap_size+0x54>
     9e0:	00002537          	lui	a0,0x2
     9e4:	67c50513          	addi	a0,a0,1660 # 267c <digit27seg+0x45c>
     9e8:	fc8ff0ef          	jal	1b0 <print>
     9ec:	00042703          	lw	a4,0(s0)
     9f0:	e65ff06f          	j	854 <__heap_size+0x54>
     9f4:	00002537          	lui	a0,0x2
     9f8:	43450513          	addi	a0,a0,1076 # 2434 <digit27seg+0x214>
     9fc:	fb4ff0ef          	jal	1b0 <print>
     a00:	001e8537          	lui	a0,0x1e8
     a04:	48050513          	addi	a0,a0,1152 # 1e8480 <_stack_end+0xe49c4>
     a08:	57c010ef          	jal	1f84 <delay>
     a0c:	00002537          	lui	a0,0x2
     a10:	46050513          	addi	a0,a0,1120 # 2460 <digit27seg+0x240>
     a14:	f9cff0ef          	jal	1b0 <print>
     a18:	00042703          	lw	a4,0(s0)
     a1c:	e39ff06f          	j	854 <__heap_size+0x54>
     a20:	00002537          	lui	a0,0x2
     a24:	6a450513          	addi	a0,a0,1700 # 26a4 <digit27seg+0x484>
     a28:	f88ff0ef          	jal	1b0 <print>
     a2c:	00042703          	lw	a4,0(s0)
     a30:	e25ff06f          	j	854 <__heap_size+0x54>
     a34:	00002537          	lui	a0,0x2
     a38:	58c50513          	addi	a0,a0,1420 # 258c <digit27seg+0x36c>
     a3c:	f74ff0ef          	jal	1b0 <print>
     a40:	00042703          	lw	a4,0(s0)
     a44:	e11ff06f          	j	854 <__heap_size+0x54>
     a48:	00002537          	lui	a0,0x2
     a4c:	59c50513          	addi	a0,a0,1436 # 259c <digit27seg+0x37c>
     a50:	f60ff0ef          	jal	1b0 <print>
     a54:	00042703          	lw	a4,0(s0)
     a58:	dfdff06f          	j	854 <__heap_size+0x54>

00000a5c <go_north>:
     a5c:	000026b7          	lui	a3,0x2
     a60:	1b468693          	addi	a3,a3,436 # 21b4 <player>
     a64:	0006a783          	lw	a5,0(a3)
     a68:	00379713          	slli	a4,a5,0x3
     a6c:	00f70733          	add	a4,a4,a5
     a70:	000027b7          	lui	a5,0x2
     a74:	00271713          	slli	a4,a4,0x2
     a78:	04878793          	addi	a5,a5,72 # 2048 <rooms>
     a7c:	00e787b3          	add	a5,a5,a4
     a80:	0087a783          	lw	a5,8(a5)
     a84:	fff00713          	li	a4,-1
     a88:	02e78463          	beq	a5,a4,ab0 <go_north+0x54>
     a8c:	ff010113          	addi	sp,sp,-16
     a90:	00002537          	lui	a0,0x2
     a94:	00112623          	sw	ra,12(sp)
     a98:	7a450513          	addi	a0,a0,1956 # 27a4 <digit27seg+0x584>
     a9c:	00f6a023          	sw	a5,0(a3)
     aa0:	f10ff0ef          	jal	1b0 <print>
     aa4:	00c12083          	lw	ra,12(sp)
     aa8:	01010113          	addi	sp,sp,16
     aac:	b65ff06f          	j	610 <display_current_room>
     ab0:	00002537          	lui	a0,0x2
     ab4:	78450513          	addi	a0,a0,1924 # 2784 <digit27seg+0x564>
     ab8:	ef8ff06f          	j	1b0 <print>

00000abc <go_south>:
     abc:	000026b7          	lui	a3,0x2
     ac0:	1b468693          	addi	a3,a3,436 # 21b4 <player>
     ac4:	0006a603          	lw	a2,0(a3)
     ac8:	00002737          	lui	a4,0x2
     acc:	04870713          	addi	a4,a4,72 # 2048 <rooms>
     ad0:	00361793          	slli	a5,a2,0x3
     ad4:	00c787b3          	add	a5,a5,a2
     ad8:	00279793          	slli	a5,a5,0x2
     adc:	00f707b3          	add	a5,a4,a5
     ae0:	00c7a783          	lw	a5,12(a5)
     ae4:	fff00613          	li	a2,-1
     ae8:	08c78863          	beq	a5,a2,b78 <go_south+0xbc>
     aec:	00600613          	li	a2,6
     af0:	06c78a63          	beq	a5,a2,b64 <go_south+0xa8>
     af4:	00700613          	li	a2,7
     af8:	04c79863          	bne	a5,a2,b48 <go_south+0x8c>
     afc:	0086a603          	lw	a2,8(a3)
     b00:	08060263          	beqz	a2,b84 <go_south+0xc8>
     b04:	00379613          	slli	a2,a5,0x3
     b08:	00f60633          	add	a2,a2,a5
     b0c:	00261613          	slli	a2,a2,0x2
     b10:	00c70733          	add	a4,a4,a2
     b14:	01872703          	lw	a4,24(a4)
     b18:	00070663          	beqz	a4,b24 <go_south+0x68>
     b1c:	0046a703          	lw	a4,4(a3)
     b20:	06070863          	beqz	a4,b90 <go_south+0xd4>
     b24:	ff010113          	addi	sp,sp,-16
     b28:	00003537          	lui	a0,0x3
     b2c:	00112623          	sw	ra,12(sp)
     b30:	8e450513          	addi	a0,a0,-1820 # 28e4 <digit27seg+0x6c4>
     b34:	00f6a023          	sw	a5,0(a3)
     b38:	e78ff0ef          	jal	1b0 <print>
     b3c:	00c12083          	lw	ra,12(sp)
     b40:	01010113          	addi	sp,sp,16
     b44:	acdff06f          	j	610 <display_current_room>
     b48:	00800613          	li	a2,8
     b4c:	fac79ce3          	bne	a5,a2,b04 <go_south+0x48>
     b50:	01c6a603          	lw	a2,28(a3)
     b54:	fa0618e3          	bnez	a2,b04 <go_south+0x48>
     b58:	00003537          	lui	a0,0x3
     b5c:	85850513          	addi	a0,a0,-1960 # 2858 <digit27seg+0x638>
     b60:	e50ff06f          	j	1b0 <print>
     b64:	0106a603          	lw	a2,16(a3)
     b68:	f8061ee3          	bnez	a2,b04 <go_south+0x48>
     b6c:	00002537          	lui	a0,0x2
     b70:	7d450513          	addi	a0,a0,2004 # 27d4 <digit27seg+0x5b4>
     b74:	e3cff06f          	j	1b0 <print>
     b78:	00002537          	lui	a0,0x2
     b7c:	7b450513          	addi	a0,a0,1972 # 27b4 <digit27seg+0x594>
     b80:	e30ff06f          	j	1b0 <print>
     b84:	00003537          	lui	a0,0x3
     b88:	81850513          	addi	a0,a0,-2024 # 2818 <digit27seg+0x5f8>
     b8c:	e24ff06f          	j	1b0 <print>
     b90:	00003537          	lui	a0,0x3
     b94:	8a850513          	addi	a0,a0,-1880 # 28a8 <digit27seg+0x688>
     b98:	e18ff06f          	j	1b0 <print>

00000b9c <go_east>:
     b9c:	000026b7          	lui	a3,0x2
     ba0:	1b468693          	addi	a3,a3,436 # 21b4 <player>
     ba4:	0006a603          	lw	a2,0(a3)
     ba8:	00002737          	lui	a4,0x2
     bac:	04870713          	addi	a4,a4,72 # 2048 <rooms>
     bb0:	00361793          	slli	a5,a2,0x3
     bb4:	00c787b3          	add	a5,a5,a2
     bb8:	00279793          	slli	a5,a5,0x2
     bbc:	00f707b3          	add	a5,a4,a5
     bc0:	0107a603          	lw	a2,16(a5)
     bc4:	fff00793          	li	a5,-1
     bc8:	04f60463          	beq	a2,a5,c10 <go_east+0x74>
     bcc:	00361793          	slli	a5,a2,0x3
     bd0:	00c787b3          	add	a5,a5,a2
     bd4:	00279793          	slli	a5,a5,0x2
     bd8:	00f70733          	add	a4,a4,a5
     bdc:	01872783          	lw	a5,24(a4)
     be0:	00078663          	beqz	a5,bec <go_east+0x50>
     be4:	00c6a783          	lw	a5,12(a3)
     be8:	02078a63          	beqz	a5,c1c <go_east+0x80>
     bec:	ff010113          	addi	sp,sp,-16
     bf0:	00003537          	lui	a0,0x3
     bf4:	00112623          	sw	ra,12(sp)
     bf8:	95450513          	addi	a0,a0,-1708 # 2954 <digit27seg+0x734>
     bfc:	00c6a023          	sw	a2,0(a3)
     c00:	db0ff0ef          	jal	1b0 <print>
     c04:	00c12083          	lw	ra,12(sp)
     c08:	01010113          	addi	sp,sp,16
     c0c:	a05ff06f          	j	610 <display_current_room>
     c10:	00003537          	lui	a0,0x3
     c14:	8f450513          	addi	a0,a0,-1804 # 28f4 <digit27seg+0x6d4>
     c18:	d98ff06f          	j	1b0 <print>
     c1c:	00003537          	lui	a0,0x3
     c20:	91450513          	addi	a0,a0,-1772 # 2914 <digit27seg+0x6f4>
     c24:	d8cff06f          	j	1b0 <print>

00000c28 <go_west>:
     c28:	000026b7          	lui	a3,0x2
     c2c:	1b468693          	addi	a3,a3,436 # 21b4 <player>
     c30:	0006a783          	lw	a5,0(a3)
     c34:	00379713          	slli	a4,a5,0x3
     c38:	00f70733          	add	a4,a4,a5
     c3c:	000027b7          	lui	a5,0x2
     c40:	00271713          	slli	a4,a4,0x2
     c44:	04878793          	addi	a5,a5,72 # 2048 <rooms>
     c48:	00e787b3          	add	a5,a5,a4
     c4c:	0147a783          	lw	a5,20(a5)
     c50:	fff00713          	li	a4,-1
     c54:	02e78463          	beq	a5,a4,c7c <go_west+0x54>
     c58:	ff010113          	addi	sp,sp,-16
     c5c:	00003537          	lui	a0,0x3
     c60:	00112623          	sw	ra,12(sp)
     c64:	98450513          	addi	a0,a0,-1660 # 2984 <digit27seg+0x764>
     c68:	00f6a023          	sw	a5,0(a3)
     c6c:	d44ff0ef          	jal	1b0 <print>
     c70:	00c12083          	lw	ra,12(sp)
     c74:	01010113          	addi	sp,sp,16
     c78:	999ff06f          	j	610 <display_current_room>
     c7c:	00003537          	lui	a0,0x3
     c80:	96450513          	addi	a0,a0,-1692 # 2964 <digit27seg+0x744>
     c84:	d2cff06f          	j	1b0 <print>

00000c88 <labinit>:
     c88:	00002737          	lui	a4,0x2
     c8c:	1c072c23          	sw	zero,472(a4) # 21d8 <timeoutcount>
     c90:	040007b7          	lui	a5,0x4000
     c94:	0207a223          	sw	zero,36(a5) # 4000024 <_stack_end+0x3efc568>
     c98:	040006b7          	lui	a3,0x4000
     c9c:	000075b7          	lui	a1,0x7
     ca0:	0206a023          	sw	zero,32(a3) # 4000020 <_stack_end+0x3efc564>
     ca4:	04000637          	lui	a2,0x4000
     ca8:	53058593          	addi	a1,a1,1328 # 7530 <__global_pointer+0x4b83>
     cac:	04000737          	lui	a4,0x4000
     cb0:	02b62423          	sw	a1,40(a2) # 4000028 <_stack_end+0x3efc56c>
     cb4:	02072623          	sw	zero,44(a4) # 400002c <_stack_end+0x3efc570>
     cb8:	00700713          	li	a4,7
     cbc:	02e7a223          	sw	a4,36(a5)
     cc0:	cb4ff06f          	j	174 <enable_interrupt>

00000cc4 <handle_interrupt>:
     cc4:	040007b7          	lui	a5,0x4000
     cc8:	0207a703          	lw	a4,32(a5) # 4000020 <_stack_end+0x3efc564>
     ccc:	02078793          	addi	a5,a5,32
     cd0:	00177713          	andi	a4,a4,1
     cd4:	00070c63          	beqz	a4,cec <handle_interrupt+0x28>
     cd8:	0007a023          	sw	zero,0(a5)
     cdc:	00002737          	lui	a4,0x2
     ce0:	1d872783          	lw	a5,472(a4) # 21d8 <timeoutcount>
     ce4:	00178793          	addi	a5,a5,1
     ce8:	1cf72c23          	sw	a5,472(a4)
     cec:	00008067          	ret

00000cf0 <reaction_challenge>:
     cf0:	00003537          	lui	a0,0x3
     cf4:	ff010113          	addi	sp,sp,-16
     cf8:	99450513          	addi	a0,a0,-1644 # 2994 <digit27seg+0x774>
     cfc:	00112623          	sw	ra,12(sp)
     d00:	00812423          	sw	s0,8(sp)
     d04:	00912223          	sw	s1,4(sp)
     d08:	01212023          	sw	s2,0(sp)
     d0c:	ca4ff0ef          	jal	1b0 <print>
     d10:	00989537          	lui	a0,0x989
     d14:	68050513          	addi	a0,a0,1664 # 989680 <_stack_end+0x885bc4>
     d18:	26c010ef          	jal	1f84 <delay>
     d1c:	00003537          	lui	a0,0x3
     d20:	9d050513          	addi	a0,a0,-1584 # 29d0 <__global_pointer+0x23>
     d24:	04000437          	lui	s0,0x4000
     d28:	c88ff0ef          	jal	1b0 <print>
     d2c:	0d042783          	lw	a5,208(s0) # 40000d0 <_stack_end+0x3efc614>
     d30:	0d040413          	addi	s0,s0,208
     d34:	0017f793          	andi	a5,a5,1
     d38:	00079c63          	bnez	a5,d50 <reaction_challenge+0x60>
     d3c:	3e800513          	li	a0,1000
     d40:	244010ef          	jal	1f84 <delay>
     d44:	00042783          	lw	a5,0(s0)
     d48:	0017f793          	andi	a5,a5,1
     d4c:	fe0788e3          	beqz	a5,d3c <reaction_challenge+0x4c>
     d50:	04000437          	lui	s0,0x4000
     d54:	0d042783          	lw	a5,208(s0) # 40000d0 <_stack_end+0x3efc614>
     d58:	0d040413          	addi	s0,s0,208
     d5c:	0017f793          	andi	a5,a5,1
     d60:	00078c63          	beqz	a5,d78 <reaction_challenge+0x88>
     d64:	3e800513          	li	a0,1000
     d68:	21c010ef          	jal	1f84 <delay>
     d6c:	00042783          	lw	a5,0(s0)
     d70:	0017f793          	andi	a5,a5,1
     d74:	fe0798e3          	bnez	a5,d64 <reaction_challenge+0x74>
     d78:	00018537          	lui	a0,0x18
     d7c:	6a050513          	addi	a0,a0,1696 # 186a0 <__global_pointer+0x15cf3>
     d80:	204010ef          	jal	1f84 <delay>
     d84:	00003537          	lui	a0,0x3
     d88:	a1050513          	addi	a0,a0,-1520 # 2a10 <__global_pointer+0x63>
     d8c:	c24ff0ef          	jal	1b0 <print>
     d90:	004c5537          	lui	a0,0x4c5
     d94:	b4050513          	addi	a0,a0,-1216 # 4c4b40 <_stack_end+0x3c1084>
     d98:	1ec010ef          	jal	1f84 <delay>
     d9c:	00003537          	lui	a0,0x3
     da0:	a3450513          	addi	a0,a0,-1484 # 2a34 <__global_pointer+0x87>
     da4:	c0cff0ef          	jal	1b0 <print>
     da8:	004c5537          	lui	a0,0x4c5
     dac:	b4050513          	addi	a0,a0,-1216 # 4c4b40 <_stack_end+0x3c1084>
     db0:	1d4010ef          	jal	1f84 <delay>
     db4:	00003537          	lui	a0,0x3
     db8:	a5450513          	addi	a0,a0,-1452 # 2a54 <__global_pointer+0xa7>
     dbc:	bf4ff0ef          	jal	1b0 <print>
     dc0:	004c5537          	lui	a0,0x4c5
     dc4:	b4050513          	addi	a0,a0,-1216 # 4c4b40 <_stack_end+0x3c1084>
     dc8:	00002437          	lui	s0,0x2
     dcc:	1b8010ef          	jal	1f84 <delay>
     dd0:	1b440413          	addi	s0,s0,436 # 21b4 <player>
     dd4:	01842783          	lw	a5,24(s0)
     dd8:	00100713          	li	a4,1
     ddc:	28e78e63          	beq	a5,a4,1078 <reaction_challenge+0x388>
     de0:	00200713          	li	a4,2
     de4:	2ae78263          	beq	a5,a4,1088 <reaction_challenge+0x398>
     de8:	00300713          	li	a4,3
     dec:	1ee78a63          	beq	a5,a4,fe0 <reaction_challenge+0x2f0>
     df0:	00003537          	lui	a0,0x3
     df4:	b1c50513          	addi	a0,a0,-1252 # 2b1c <__global_pointer+0x16f>
     df8:	bb8ff0ef          	jal	1b0 <print>
     dfc:	004c5537          	lui	a0,0x4c5
     e00:	b4050513          	addi	a0,a0,-1216 # 4c4b40 <_stack_end+0x3c1084>
     e04:	180010ef          	jal	1f84 <delay>
     e08:	00003537          	lui	a0,0x3
     e0c:	b5450513          	addi	a0,a0,-1196 # 2b54 <__global_pointer+0x1a7>
     e10:	ba0ff0ef          	jal	1b0 <print>
     e14:	004c5537          	lui	a0,0x4c5
     e18:	b4050513          	addi	a0,a0,-1216 # 4c4b40 <_stack_end+0x3c1084>
     e1c:	168010ef          	jal	1f84 <delay>
     e20:	00003537          	lui	a0,0x3
     e24:	b8050513          	addi	a0,a0,-1152 # 2b80 <__global_pointer+0x1d3>
     e28:	040004b7          	lui	s1,0x4000
     e2c:	b84ff0ef          	jal	1b0 <print>
     e30:	0d04a783          	lw	a5,208(s1) # 40000d0 <_stack_end+0x3efc614>
     e34:	0d048493          	addi	s1,s1,208
     e38:	0017f793          	andi	a5,a5,1
     e3c:	00079c63          	bnez	a5,e54 <reaction_challenge+0x164>
     e40:	3e800513          	li	a0,1000
     e44:	140010ef          	jal	1f84 <delay>
     e48:	0004a783          	lw	a5,0(s1)
     e4c:	0017f793          	andi	a5,a5,1
     e50:	fe0788e3          	beqz	a5,e40 <reaction_challenge+0x150>
     e54:	040004b7          	lui	s1,0x4000
     e58:	0d04a783          	lw	a5,208(s1) # 40000d0 <_stack_end+0x3efc614>
     e5c:	0d048493          	addi	s1,s1,208
     e60:	0017f793          	andi	a5,a5,1
     e64:	00078c63          	beqz	a5,e7c <reaction_challenge+0x18c>
     e68:	3e800513          	li	a0,1000
     e6c:	118010ef          	jal	1f84 <delay>
     e70:	0004a783          	lw	a5,0(s1)
     e74:	0017f793          	andi	a5,a5,1
     e78:	fe0798e3          	bnez	a5,e68 <reaction_challenge+0x178>
     e7c:	00018537          	lui	a0,0x18
     e80:	6a050513          	addi	a0,a0,1696 # 186a0 <__global_pointer+0x15cf3>
     e84:	100010ef          	jal	1f84 <delay>
     e88:	00003537          	lui	a0,0x3
     e8c:	ba850513          	addi	a0,a0,-1112 # 2ba8 <__global_pointer+0x1fb>
     e90:	040004b7          	lui	s1,0x4000
     e94:	b1cff0ef          	jal	1b0 <print>
     e98:	0d04a783          	lw	a5,208(s1) # 40000d0 <_stack_end+0x3efc614>
     e9c:	0d048493          	addi	s1,s1,208
     ea0:	0017f793          	andi	a5,a5,1
     ea4:	00078c63          	beqz	a5,ebc <reaction_challenge+0x1cc>
     ea8:	3e800513          	li	a0,1000
     eac:	0d8010ef          	jal	1f84 <delay>
     eb0:	0004a783          	lw	a5,0(s1)
     eb4:	0017f793          	andi	a5,a5,1
     eb8:	fe0798e3          	bnez	a5,ea8 <reaction_challenge+0x1b8>
     ebc:	01c9c537          	lui	a0,0x1c9c
     ec0:	38050513          	addi	a0,a0,896 # 1c9c380 <_stack_end+0x1b988c4>
     ec4:	0c0010ef          	jal	1f84 <delay>
     ec8:	00003537          	lui	a0,0x3
     ecc:	be050513          	addi	a0,a0,-1056 # 2be0 <__global_pointer+0x233>
     ed0:	ae0ff0ef          	jal	1b0 <print>
     ed4:	00002937          	lui	s2,0x2
     ed8:	1c092c23          	sw	zero,472(s2) # 21d8 <timeoutcount>
     edc:	040007b7          	lui	a5,0x4000
     ee0:	0207a223          	sw	zero,36(a5) # 4000024 <_stack_end+0x3efc568>
     ee4:	040006b7          	lui	a3,0x4000
     ee8:	000075b7          	lui	a1,0x7
     eec:	0206a023          	sw	zero,32(a3) # 4000020 <_stack_end+0x3efc564>
     ef0:	04000637          	lui	a2,0x4000
     ef4:	53058593          	addi	a1,a1,1328 # 7530 <__global_pointer+0x4b83>
     ef8:	02b62423          	sw	a1,40(a2) # 4000028 <_stack_end+0x3efc56c>
     efc:	04000737          	lui	a4,0x4000
     f00:	02072623          	sw	zero,44(a4) # 400002c <_stack_end+0x3efc570>
     f04:	00700613          	li	a2,7
     f08:	02c7a223          	sw	a2,36(a5)
     f0c:	a68ff0ef          	jal	174 <enable_interrupt>
     f10:	04000737          	lui	a4,0x4000
     f14:	040007b7          	lui	a5,0x4000
     f18:	3ff00693          	li	a3,1023
     f1c:	00d7a023          	sw	a3,0(a5) # 4000000 <_stack_end+0x3efc544>
     f20:	0d070713          	addi	a4,a4,208 # 40000d0 <_stack_end+0x3efc614>
     f24:	00072783          	lw	a5,0(a4)
     f28:	0017f793          	andi	a5,a5,1
     f2c:	fe078ce3          	beqz	a5,f24 <reaction_challenge+0x234>
     f30:	00072783          	lw	a5,0(a4)
     f34:	040004b7          	lui	s1,0x4000
     f38:	1d892903          	lw	s2,472(s2)
     f3c:	0017f793          	andi	a5,a5,1
     f40:	0d048493          	addi	s1,s1,208 # 40000d0 <_stack_end+0x3efc614>
     f44:	00078c63          	beqz	a5,f5c <reaction_challenge+0x26c>
     f48:	3e800513          	li	a0,1000
     f4c:	038010ef          	jal	1f84 <delay>
     f50:	0004a783          	lw	a5,0(s1)
     f54:	0017f793          	andi	a5,a5,1
     f58:	fe0798e3          	bnez	a5,f48 <reaction_challenge+0x258>
     f5c:	040007b7          	lui	a5,0x4000
     f60:	00003537          	lui	a0,0x3
     f64:	0007a023          	sw	zero,0(a5) # 4000000 <_stack_end+0x3efc544>
     f68:	be850513          	addi	a0,a0,-1048 # 2be8 <__global_pointer+0x23b>
     f6c:	a44ff0ef          	jal	1b0 <print>
     f70:	00090513          	mv	a0,s2
     f74:	a74ff0ef          	jal	1e8 <print_dec>
     f78:	00003537          	lui	a0,0x3
     f7c:	bf850513          	addi	a0,a0,-1032 # 2bf8 <__global_pointer+0x24b>
     f80:	a30ff0ef          	jal	1b0 <print>
     f84:	01842783          	lw	a5,24(s0)
     f88:	00100713          	li	a4,1
     f8c:	0ae78263          	beq	a5,a4,1030 <reaction_challenge+0x340>
     f90:	00300713          	li	a4,3
     f94:	0ce78c63          	beq	a5,a4,106c <reaction_challenge+0x37c>
     f98:	0fa00413          	li	s0,250
     f9c:	0fa00713          	li	a4,250
     fa0:	00989537          	lui	a0,0x989
     fa4:	03100793          	li	a5,49
     fa8:	68050513          	addi	a0,a0,1664 # 989680 <_stack_end+0x885bc4>
     fac:	0927de63          	bge	a5,s2,1048 <reaction_challenge+0x358>
     fb0:	04e95063          	bge	s2,a4,ff0 <reaction_challenge+0x300>
     fb4:	7d1000ef          	jal	1f84 <delay>
     fb8:	00003537          	lui	a0,0x3
     fbc:	c6050513          	addi	a0,a0,-928 # 2c60 <__global_pointer+0x2b3>
     fc0:	9f0ff0ef          	jal	1b0 <print>
     fc4:	00c12083          	lw	ra,12(sp)
     fc8:	00812403          	lw	s0,8(sp)
     fcc:	00412483          	lw	s1,4(sp)
     fd0:	00012903          	lw	s2,0(sp)
     fd4:	00100513          	li	a0,1
     fd8:	01010113          	addi	sp,sp,16
     fdc:	00008067          	ret
     fe0:	00003537          	lui	a0,0x3
     fe4:	ae850513          	addi	a0,a0,-1304 # 2ae8 <__global_pointer+0x13b>
     fe8:	9c8ff0ef          	jal	1b0 <print>
     fec:	e11ff06f          	j	dfc <reaction_challenge+0x10c>
     ff0:	795000ef          	jal	1f84 <delay>
     ff4:	00003537          	lui	a0,0x3
     ff8:	c8c50513          	addi	a0,a0,-884 # 2c8c <__global_pointer+0x2df>
     ffc:	9b4ff0ef          	jal	1b0 <print>
    1000:	00040513          	mv	a0,s0
    1004:	9e4ff0ef          	jal	1e8 <print_dec>
    1008:	00003537          	lui	a0,0x3
    100c:	cb850513          	addi	a0,a0,-840 # 2cb8 <__global_pointer+0x30b>
    1010:	9a0ff0ef          	jal	1b0 <print>
    1014:	00000513          	li	a0,0
    1018:	00c12083          	lw	ra,12(sp)
    101c:	00812403          	lw	s0,8(sp)
    1020:	00412483          	lw	s1,4(sp)
    1024:	00012903          	lw	s2,0(sp)
    1028:	01010113          	addi	sp,sp,16
    102c:	00008067          	ret
    1030:	00989537          	lui	a0,0x989
    1034:	03100793          	li	a5,49
    1038:	12c00413          	li	s0,300
    103c:	12c00713          	li	a4,300
    1040:	68050513          	addi	a0,a0,1664 # 989680 <_stack_end+0x885bc4>
    1044:	f727c6e3          	blt	a5,s2,fb0 <reaction_challenge+0x2c0>
    1048:	73d000ef          	jal	1f84 <delay>
    104c:	00003537          	lui	a0,0x3
    1050:	c0050513          	addi	a0,a0,-1024 # 2c00 <__global_pointer+0x253>
    1054:	95cff0ef          	jal	1b0 <print>
    1058:	00003537          	lui	a0,0x3
    105c:	c3c50513          	addi	a0,a0,-964 # 2c3c <__global_pointer+0x28f>
    1060:	950ff0ef          	jal	1b0 <print>
    1064:	00000513          	li	a0,0
    1068:	fb1ff06f          	j	1018 <reaction_challenge+0x328>
    106c:	0af00413          	li	s0,175
    1070:	0af00713          	li	a4,175
    1074:	f2dff06f          	j	fa0 <reaction_challenge+0x2b0>
    1078:	00003537          	lui	a0,0x3
    107c:	a7c50513          	addi	a0,a0,-1412 # 2a7c <__global_pointer+0xcf>
    1080:	930ff0ef          	jal	1b0 <print>
    1084:	d79ff06f          	j	dfc <reaction_challenge+0x10c>
    1088:	00003537          	lui	a0,0x3
    108c:	ab050513          	addi	a0,a0,-1360 # 2ab0 <__global_pointer+0x103>
    1090:	920ff0ef          	jal	1b0 <print>
    1094:	d69ff06f          	j	dfc <reaction_challenge+0x10c>

00001098 <office_memory_challenge>:
    1098:	00003537          	lui	a0,0x3
    109c:	ff010113          	addi	sp,sp,-16
    10a0:	cc050513          	addi	a0,a0,-832 # 2cc0 <__global_pointer+0x313>
    10a4:	00812423          	sw	s0,8(sp)
    10a8:	00112623          	sw	ra,12(sp)
    10ac:	00912223          	sw	s1,4(sp)
    10b0:	04000437          	lui	s0,0x4000
    10b4:	8fcff0ef          	jal	1b0 <print>
    10b8:	0d042783          	lw	a5,208(s0) # 40000d0 <_stack_end+0x3efc614>
    10bc:	0017f793          	andi	a5,a5,1
    10c0:	00079e63          	bnez	a5,10dc <office_memory_challenge+0x44>
    10c4:	0d040413          	addi	s0,s0,208
    10c8:	3e800513          	li	a0,1000
    10cc:	6b9000ef          	jal	1f84 <delay>
    10d0:	00042783          	lw	a5,0(s0)
    10d4:	0017f793          	andi	a5,a5,1
    10d8:	fe0788e3          	beqz	a5,10c8 <office_memory_challenge+0x30>
    10dc:	04000437          	lui	s0,0x4000
    10e0:	0d042783          	lw	a5,208(s0) # 40000d0 <_stack_end+0x3efc614>
    10e4:	0d040413          	addi	s0,s0,208
    10e8:	0017f793          	andi	a5,a5,1
    10ec:	00078c63          	beqz	a5,1104 <office_memory_challenge+0x6c>
    10f0:	3e800513          	li	a0,1000
    10f4:	691000ef          	jal	1f84 <delay>
    10f8:	00042783          	lw	a5,0(s0)
    10fc:	0017f793          	andi	a5,a5,1
    1100:	fe0798e3          	bnez	a5,10f0 <office_memory_challenge+0x58>
    1104:	00018537          	lui	a0,0x18
    1108:	6a050513          	addi	a0,a0,1696 # 186a0 <__global_pointer+0x15cf3>
    110c:	679000ef          	jal	1f84 <delay>
    1110:	00003537          	lui	a0,0x3
    1114:	d0850513          	addi	a0,a0,-760 # 2d08 <__global_pointer+0x35b>
    1118:	898ff0ef          	jal	1b0 <print>
    111c:	00989537          	lui	a0,0x989
    1120:	68050513          	addi	a0,a0,1664 # 989680 <_stack_end+0x885bc4>
    1124:	661000ef          	jal	1f84 <delay>
    1128:	00003537          	lui	a0,0x3
    112c:	d2850513          	addi	a0,a0,-728 # 2d28 <__global_pointer+0x37b>
    1130:	880ff0ef          	jal	1b0 <print>
    1134:	00989537          	lui	a0,0x989
    1138:	68050513          	addi	a0,a0,1664 # 989680 <_stack_end+0x885bc4>
    113c:	649000ef          	jal	1f84 <delay>
    1140:	00003537          	lui	a0,0x3
    1144:	d4c50513          	addi	a0,a0,-692 # 2d4c <__global_pointer+0x39f>
    1148:	868ff0ef          	jal	1b0 <print>
    114c:	00989537          	lui	a0,0x989
    1150:	68050513          	addi	a0,a0,1664 # 989680 <_stack_end+0x885bc4>
    1154:	631000ef          	jal	1f84 <delay>
    1158:	00003537          	lui	a0,0x3
    115c:	d7c50513          	addi	a0,a0,-644 # 2d7c <__global_pointer+0x3cf>
    1160:	850ff0ef          	jal	1b0 <print>
    1164:	00989537          	lui	a0,0x989
    1168:	68050513          	addi	a0,a0,1664 # 989680 <_stack_end+0x885bc4>
    116c:	619000ef          	jal	1f84 <delay>
    1170:	00003537          	lui	a0,0x3
    1174:	b8050513          	addi	a0,a0,-1152 # 2b80 <__global_pointer+0x1d3>
    1178:	04000437          	lui	s0,0x4000
    117c:	834ff0ef          	jal	1b0 <print>
    1180:	0d042783          	lw	a5,208(s0) # 40000d0 <_stack_end+0x3efc614>
    1184:	0d040413          	addi	s0,s0,208
    1188:	0017f793          	andi	a5,a5,1
    118c:	00079c63          	bnez	a5,11a4 <office_memory_challenge+0x10c>
    1190:	3e800513          	li	a0,1000
    1194:	5f1000ef          	jal	1f84 <delay>
    1198:	00042783          	lw	a5,0(s0)
    119c:	0017f793          	andi	a5,a5,1
    11a0:	fe0788e3          	beqz	a5,1190 <office_memory_challenge+0xf8>
    11a4:	04000437          	lui	s0,0x4000
    11a8:	0d042783          	lw	a5,208(s0) # 40000d0 <_stack_end+0x3efc614>
    11ac:	0d040413          	addi	s0,s0,208
    11b0:	0017f793          	andi	a5,a5,1
    11b4:	00078c63          	beqz	a5,11cc <office_memory_challenge+0x134>
    11b8:	3e800513          	li	a0,1000
    11bc:	5c9000ef          	jal	1f84 <delay>
    11c0:	00042783          	lw	a5,0(s0)
    11c4:	0017f793          	andi	a5,a5,1
    11c8:	fe0798e3          	bnez	a5,11b8 <office_memory_challenge+0x120>
    11cc:	00018537          	lui	a0,0x18
    11d0:	6a050513          	addi	a0,a0,1696 # 186a0 <__global_pointer+0x15cf3>
    11d4:	5b1000ef          	jal	1f84 <delay>
    11d8:	000026b7          	lui	a3,0x2
    11dc:	1b06a783          	lw	a5,432(a3) # 21b0 <pattern_state>
    11e0:	41c65737          	lui	a4,0x41c65
    11e4:	e6d70713          	addi	a4,a4,-403 # 41c64e6d <_stack_end+0x41b613b1>
    11e8:	02e787b3          	mul	a5,a5,a4
    11ec:	00003737          	lui	a4,0x3
    11f0:	03970713          	addi	a4,a4,57 # 3039 <__global_pointer+0x68c>
    11f4:	00003537          	lui	a0,0x3
    11f8:	000024b7          	lui	s1,0x2
    11fc:	da050513          	addi	a0,a0,-608 # 2da0 <__global_pointer+0x3f3>
    1200:	04000437          	lui	s0,0x4000
    1204:	0d040413          	addi	s0,s0,208 # 40000d0 <_stack_end+0x3efc614>
    1208:	00e787b3          	add	a5,a5,a4
    120c:	0107d713          	srli	a4,a5,0x10
    1210:	3ff77713          	andi	a4,a4,1023
    1214:	1af6a823          	sw	a5,432(a3)
    1218:	1ce4aa23          	sw	a4,468(s1) # 21d4 <office_pattern>
    121c:	f95fe0ef          	jal	1b0 <print>
    1220:	00003537          	lui	a0,0x3
    1224:	db850513          	addi	a0,a0,-584 # 2db8 <__global_pointer+0x40b>
    1228:	f89fe0ef          	jal	1b0 <print>
    122c:	1d44a783          	lw	a5,468(s1)
    1230:	00989537          	lui	a0,0x989
    1234:	68050513          	addi	a0,a0,1664 # 989680 <_stack_end+0x885bc4>
    1238:	3ff7f793          	andi	a5,a5,1023
    123c:	f2f42823          	sw	a5,-208(s0)
    1240:	545000ef          	jal	1f84 <delay>
    1244:	00989537          	lui	a0,0x989
    1248:	68050513          	addi	a0,a0,1664 # 989680 <_stack_end+0x885bc4>
    124c:	f2042823          	sw	zero,-208(s0)
    1250:	535000ef          	jal	1f84 <delay>
    1254:	00003537          	lui	a0,0x3
    1258:	dd050513          	addi	a0,a0,-560 # 2dd0 <__global_pointer+0x423>
    125c:	f55fe0ef          	jal	1b0 <print>
    1260:	00042783          	lw	a5,0(s0)
    1264:	0017f793          	andi	a5,a5,1
    1268:	00079c63          	bnez	a5,1280 <office_memory_challenge+0x1e8>
    126c:	3e800513          	li	a0,1000
    1270:	515000ef          	jal	1f84 <delay>
    1274:	00042783          	lw	a5,0(s0)
    1278:	0017f793          	andi	a5,a5,1
    127c:	fe0788e3          	beqz	a5,126c <office_memory_challenge+0x1d4>
    1280:	04000437          	lui	s0,0x4000
    1284:	0d042783          	lw	a5,208(s0) # 40000d0 <_stack_end+0x3efc614>
    1288:	0d040413          	addi	s0,s0,208
    128c:	0017f793          	andi	a5,a5,1
    1290:	00078c63          	beqz	a5,12a8 <office_memory_challenge+0x210>
    1294:	3e800513          	li	a0,1000
    1298:	4ed000ef          	jal	1f84 <delay>
    129c:	00042783          	lw	a5,0(s0)
    12a0:	0017f793          	andi	a5,a5,1
    12a4:	fe0798e3          	bnez	a5,1294 <office_memory_challenge+0x1fc>
    12a8:	00018537          	lui	a0,0x18
    12ac:	6a050513          	addi	a0,a0,1696 # 186a0 <__global_pointer+0x15cf3>
    12b0:	4d5000ef          	jal	1f84 <delay>
    12b4:	04000737          	lui	a4,0x4000
    12b8:	01072783          	lw	a5,16(a4) # 4000010 <_stack_end+0x3efc554>
    12bc:	1d44a683          	lw	a3,468(s1)
    12c0:	3ff7f793          	andi	a5,a5,1023
    12c4:	02f68463          	beq	a3,a5,12ec <office_memory_challenge+0x254>
    12c8:	00003537          	lui	a0,0x3
    12cc:	e5050513          	addi	a0,a0,-432 # 2e50 <__global_pointer+0x4a3>
    12d0:	ee1fe0ef          	jal	1b0 <print>
    12d4:	00c12083          	lw	ra,12(sp)
    12d8:	00812403          	lw	s0,8(sp)
    12dc:	00412483          	lw	s1,4(sp)
    12e0:	00000513          	li	a0,0
    12e4:	01010113          	addi	sp,sp,16
    12e8:	00008067          	ret
    12ec:	00003537          	lui	a0,0x3
    12f0:	e2850513          	addi	a0,a0,-472 # 2e28 <__global_pointer+0x47b>
    12f4:	ebdfe0ef          	jal	1b0 <print>
    12f8:	00c12083          	lw	ra,12(sp)
    12fc:	00812403          	lw	s0,8(sp)
    1300:	00412483          	lw	s1,4(sp)
    1304:	00100513          	li	a0,1
    1308:	01010113          	addi	sp,sp,16
    130c:	00008067          	ret

00001310 <vault_7segment_puzzle_binary>:
    1310:	00003537          	lui	a0,0x3
    1314:	f9010113          	addi	sp,sp,-112
    1318:	e6850513          	addi	a0,a0,-408 # 2e68 <__global_pointer+0x4bb>
    131c:	06112623          	sw	ra,108(sp)
    1320:	06812423          	sw	s0,104(sp)
    1324:	06912223          	sw	s1,100(sp)
    1328:	07212023          	sw	s2,96(sp)
    132c:	05312e23          	sw	s3,92(sp)
    1330:	05412c23          	sw	s4,88(sp)
    1334:	05512a23          	sw	s5,84(sp)
    1338:	05612823          	sw	s6,80(sp)
    133c:	05712623          	sw	s7,76(sp)
    1340:	05812423          	sw	s8,72(sp)
    1344:	05912223          	sw	s9,68(sp)
    1348:	05a12023          	sw	s10,64(sp)
    134c:	03b12e23          	sw	s11,60(sp)
    1350:	e61fe0ef          	jal	1b0 <print>
    1354:	004c5537          	lui	a0,0x4c5
    1358:	b4050513          	addi	a0,a0,-1216 # 4c4b40 <_stack_end+0x3c1084>
    135c:	429000ef          	jal	1f84 <delay>
    1360:	00003537          	lui	a0,0x3
    1364:	e9c50513          	addi	a0,a0,-356 # 2e9c <__global_pointer+0x4ef>
    1368:	e49fe0ef          	jal	1b0 <print>
    136c:	004c5537          	lui	a0,0x4c5
    1370:	b4050513          	addi	a0,a0,-1216 # 4c4b40 <_stack_end+0x3c1084>
    1374:	411000ef          	jal	1f84 <delay>
    1378:	00003537          	lui	a0,0x3
    137c:	ec450513          	addi	a0,a0,-316 # 2ec4 <__global_pointer+0x517>
    1380:	e31fe0ef          	jal	1b0 <print>
    1384:	004c5537          	lui	a0,0x4c5
    1388:	b4050513          	addi	a0,a0,-1216 # 4c4b40 <_stack_end+0x3c1084>
    138c:	3f9000ef          	jal	1f84 <delay>
    1390:	00003537          	lui	a0,0x3
    1394:	ef850513          	addi	a0,a0,-264 # 2ef8 <__global_pointer+0x54b>
    1398:	e19fe0ef          	jal	1b0 <print>
    139c:	004c5537          	lui	a0,0x4c5
    13a0:	b4050513          	addi	a0,a0,-1216 # 4c4b40 <_stack_end+0x3c1084>
    13a4:	3e1000ef          	jal	1f84 <delay>
    13a8:	00003537          	lui	a0,0x3
    13ac:	f1450513          	addi	a0,a0,-236 # 2f14 <__global_pointer+0x567>
    13b0:	e01fe0ef          	jal	1b0 <print>
    13b4:	004c5537          	lui	a0,0x4c5
    13b8:	b4050513          	addi	a0,a0,-1216 # 4c4b40 <_stack_end+0x3c1084>
    13bc:	3c9000ef          	jal	1f84 <delay>
    13c0:	00003537          	lui	a0,0x3
    13c4:	f4050513          	addi	a0,a0,-192 # 2f40 <__global_pointer+0x593>
    13c8:	de9fe0ef          	jal	1b0 <print>
    13cc:	04000937          	lui	s2,0x4000
    13d0:	0a090913          	addi	s2,s2,160 # 40000a0 <_stack_end+0x3efc5e4>
    13d4:	fb000793          	li	a5,-80
    13d8:	00f90023          	sb	a5,0(s2)
    13dc:	04000437          	lui	s0,0x4000
    13e0:	ff800793          	li	a5,-8
    13e4:	08f40823          	sb	a5,144(s0) # 4000090 <_stack_end+0x3efc5d4>
    13e8:	040004b7          	lui	s1,0x4000
    13ec:	fa400793          	li	a5,-92
    13f0:	08f48023          	sb	a5,128(s1) # 4000080 <_stack_end+0x3efc5c4>
    13f4:	040009b7          	lui	s3,0x4000
    13f8:	f9000793          	li	a5,-112
    13fc:	06f98823          	sb	a5,112(s3) # 4000070 <_stack_end+0x3efc5b4>
    1400:	04000a37          	lui	s4,0x4000
    1404:	ff900793          	li	a5,-7
    1408:	04000ab7          	lui	s5,0x4000
    140c:	06fa0023          	sb	a5,96(s4) # 4000060 <_stack_end+0x3efc5a4>
    1410:	02faf537          	lui	a0,0x2faf
    1414:	f9200793          	li	a5,-110
    1418:	04fa8823          	sb	a5,80(s5) # 4000050 <_stack_end+0x3efc594>
    141c:	08050513          	addi	a0,a0,128 # 2faf080 <_stack_end+0x2eab5c4>
    1420:	365000ef          	jal	1f84 <delay>
    1424:	fc000793          	li	a5,-64
    1428:	04fa8823          	sb	a5,80(s5)
    142c:	06fa0023          	sb	a5,96(s4)
    1430:	00002ab7          	lui	s5,0x2
    1434:	06f98823          	sb	a5,112(s3)
    1438:	220a8a93          	addi	s5,s5,544 # 2220 <digit27seg>
    143c:	08f48023          	sb	a5,128(s1)
    1440:	00caa803          	lw	a6,12(s5)
    1444:	010aa503          	lw	a0,16(s5)
    1448:	014aa583          	lw	a1,20(s5)
    144c:	018aa603          	lw	a2,24(s5)
    1450:	01caa683          	lw	a3,28(s5)
    1454:	020aa703          	lw	a4,32(s5)
    1458:	08f40823          	sb	a5,144(s0)
    145c:	00f90023          	sb	a5,0(s2)
    1460:	04000437          	lui	s0,0x4000
    1464:	00018bb7          	lui	s7,0x18
    1468:	04000b37          	lui	s6,0x4000
    146c:	001e8c37          	lui	s8,0x1e8
    1470:	01012c23          	sw	a6,24(sp)
    1474:	00a12e23          	sw	a0,28(sp)
    1478:	02b12023          	sw	a1,32(sp)
    147c:	02c12223          	sw	a2,36(sp)
    1480:	02d12423          	sw	a3,40(sp)
    1484:	02e12623          	sw	a4,44(sp)
    1488:	01810993          	addi	s3,sp,24
    148c:	00000493          	li	s1,0
    1490:	00003db7          	lui	s11,0x3
    1494:	00003d37          	lui	s10,0x3
    1498:	00003cb7          	lui	s9,0x3
    149c:	0d040413          	addi	s0,s0,208 # 40000d0 <_stack_end+0x3efc614>
    14a0:	6a0b8b93          	addi	s7,s7,1696 # 186a0 <__global_pointer+0x15cf3>
    14a4:	010b0b13          	addi	s6,s6,16 # 4000010 <_stack_end+0x3efc554>
    14a8:	480c0c13          	addi	s8,s8,1152 # 1e8480 <_stack_end+0xe49c4>
    14ac:	f60d8513          	addi	a0,s11,-160 # 2f60 <__global_pointer+0x5b3>
    14b0:	d01fe0ef          	jal	1b0 <print>
    14b4:	00148493          	addi	s1,s1,1
    14b8:	00048513          	mv	a0,s1
    14bc:	d2dfe0ef          	jal	1e8 <print_dec>
    14c0:	f70d0513          	addi	a0,s10,-144 # 2f70 <__global_pointer+0x5c3>
    14c4:	cedfe0ef          	jal	1b0 <print>
    14c8:	0149aa03          	lw	s4,20(s3)
    14cc:	000a0513          	mv	a0,s4
    14d0:	d19fe0ef          	jal	1e8 <print_dec>
    14d4:	f80c8513          	addi	a0,s9,-128 # 2f80 <__global_pointer+0x5d3>
    14d8:	cd9fe0ef          	jal	1b0 <print>
    14dc:	00042783          	lw	a5,0(s0)
    14e0:	0017f793          	andi	a5,a5,1
    14e4:	02079663          	bnez	a5,1510 <vault_7segment_puzzle_binary+0x200>
    14e8:	3e800513          	li	a0,1000
    14ec:	299000ef          	jal	1f84 <delay>
    14f0:	00042783          	lw	a5,0(s0)
    14f4:	0017f793          	andi	a5,a5,1
    14f8:	fe0788e3          	beqz	a5,14e8 <vault_7segment_puzzle_binary+0x1d8>
    14fc:	00042783          	lw	a5,0(s0)
    1500:	0017f793          	andi	a5,a5,1
    1504:	00078c63          	beqz	a5,151c <vault_7segment_puzzle_binary+0x20c>
    1508:	3e800513          	li	a0,1000
    150c:	279000ef          	jal	1f84 <delay>
    1510:	00042783          	lw	a5,0(s0)
    1514:	0017f793          	andi	a5,a5,1
    1518:	fe0798e3          	bnez	a5,1508 <vault_7segment_puzzle_binary+0x1f8>
    151c:	000b8513          	mv	a0,s7
    1520:	265000ef          	jal	1f84 <delay>
    1524:	000b2703          	lw	a4,0(s6)
    1528:	00675793          	srli	a5,a4,0x6
    152c:	08077693          	andi	a3,a4,128
    1530:	0017f793          	andi	a5,a5,1
    1534:	0c068a63          	beqz	a3,1608 <vault_7segment_puzzle_binary+0x2f8>
    1538:	10077693          	andi	a3,a4,256
    153c:	00278613          	addi	a2,a5,2
    1540:	0e069063          	bnez	a3,1620 <vault_7segment_puzzle_binary+0x310>
    1544:	20077713          	andi	a4,a4,512
    1548:	00a78793          	addi	a5,a5,10
    154c:	00071a63          	bnez	a4,1560 <vault_7segment_puzzle_binary+0x250>
    1550:	00060793          	mv	a5,a2
    1554:	00fa8733          	add	a4,s5,a5
    1558:	00074703          	lbu	a4,0(a4)
    155c:	00e90023          	sb	a4,0(s2)
    1560:	0cfa1e63          	bne	s4,a5,163c <vault_7segment_puzzle_binary+0x32c>
    1564:	000037b7          	lui	a5,0x3
    1568:	f8478513          	addi	a0,a5,-124 # 2f84 <__global_pointer+0x5d7>
    156c:	c45fe0ef          	jal	1b0 <print>
    1570:	000c0513          	mv	a0,s8
    1574:	211000ef          	jal	1f84 <delay>
    1578:	00600793          	li	a5,6
    157c:	ffc98993          	addi	s3,s3,-4
    1580:	ff090913          	addi	s2,s2,-16
    1584:	f2f494e3          	bne	s1,a5,14ac <vault_7segment_puzzle_binary+0x19c>
    1588:	00003537          	lui	a0,0x3
    158c:	fd450513          	addi	a0,a0,-44 # 2fd4 <__global_pointer+0x627>
    1590:	c21fe0ef          	jal	1b0 <print>
    1594:	fc000793          	li	a5,-64
    1598:	04000837          	lui	a6,0x4000
    159c:	04f80823          	sb	a5,80(a6) # 4000050 <_stack_end+0x3efc594>
    15a0:	04000537          	lui	a0,0x4000
    15a4:	06f50023          	sb	a5,96(a0) # 4000060 <_stack_end+0x3efc5a4>
    15a8:	040005b7          	lui	a1,0x4000
    15ac:	06f58823          	sb	a5,112(a1) # 4000070 <_stack_end+0x3efc5b4>
    15b0:	04000637          	lui	a2,0x4000
    15b4:	08f60023          	sb	a5,128(a2) # 4000080 <_stack_end+0x3efc5c4>
    15b8:	040006b7          	lui	a3,0x4000
    15bc:	04000737          	lui	a4,0x4000
    15c0:	08f68823          	sb	a5,144(a3) # 4000090 <_stack_end+0x3efc5d4>
    15c4:	0af70023          	sb	a5,160(a4) # 40000a0 <_stack_end+0x3efc5e4>
    15c8:	00100513          	li	a0,1
    15cc:	06c12083          	lw	ra,108(sp)
    15d0:	06812403          	lw	s0,104(sp)
    15d4:	06412483          	lw	s1,100(sp)
    15d8:	06012903          	lw	s2,96(sp)
    15dc:	05c12983          	lw	s3,92(sp)
    15e0:	05812a03          	lw	s4,88(sp)
    15e4:	05412a83          	lw	s5,84(sp)
    15e8:	05012b03          	lw	s6,80(sp)
    15ec:	04c12b83          	lw	s7,76(sp)
    15f0:	04812c03          	lw	s8,72(sp)
    15f4:	04412c83          	lw	s9,68(sp)
    15f8:	04012d03          	lw	s10,64(sp)
    15fc:	03c12d83          	lw	s11,60(sp)
    1600:	07010113          	addi	sp,sp,112
    1604:	00008067          	ret
    1608:	10077693          	andi	a3,a4,256
    160c:	00069c63          	bnez	a3,1624 <vault_7segment_puzzle_binary+0x314>
    1610:	20077713          	andi	a4,a4,512
    1614:	f40700e3          	beqz	a4,1554 <vault_7segment_puzzle_binary+0x244>
    1618:	00878793          	addi	a5,a5,8
    161c:	f39ff06f          	j	1554 <vault_7segment_puzzle_binary+0x244>
    1620:	00060793          	mv	a5,a2
    1624:	20077713          	andi	a4,a4,512
    1628:	00071663          	bnez	a4,1634 <vault_7segment_puzzle_binary+0x324>
    162c:	00478793          	addi	a5,a5,4
    1630:	f25ff06f          	j	1554 <vault_7segment_puzzle_binary+0x244>
    1634:	00c78793          	addi	a5,a5,12
    1638:	f2fa06e3          	beq	s4,a5,1564 <vault_7segment_puzzle_binary+0x254>
    163c:	00003537          	lui	a0,0x3
    1640:	f9050513          	addi	a0,a0,-112 # 2f90 <__global_pointer+0x5e3>
    1644:	00f12623          	sw	a5,12(sp)
    1648:	b69fe0ef          	jal	1b0 <print>
    164c:	00003537          	lui	a0,0x3
    1650:	fb450513          	addi	a0,a0,-76 # 2fb4 <__global_pointer+0x607>
    1654:	b5dfe0ef          	jal	1b0 <print>
    1658:	00c12783          	lw	a5,12(sp)
    165c:	00078513          	mv	a0,a5
    1660:	b89fe0ef          	jal	1e8 <print_dec>
    1664:	00003537          	lui	a0,0x3
    1668:	fc450513          	addi	a0,a0,-60 # 2fc4 <__global_pointer+0x617>
    166c:	b45fe0ef          	jal	1b0 <print>
    1670:	000a0513          	mv	a0,s4
    1674:	b75fe0ef          	jal	1e8 <print_dec>
    1678:	00002537          	lui	a0,0x2
    167c:	2d850513          	addi	a0,a0,728 # 22d8 <digit27seg+0xb8>
    1680:	b31fe0ef          	jal	1b0 <print>
    1684:	fc000793          	li	a5,-64
    1688:	04000837          	lui	a6,0x4000
    168c:	04f80823          	sb	a5,80(a6) # 4000050 <_stack_end+0x3efc594>
    1690:	04000537          	lui	a0,0x4000
    1694:	06f50023          	sb	a5,96(a0) # 4000060 <_stack_end+0x3efc5a4>
    1698:	040005b7          	lui	a1,0x4000
    169c:	06f58823          	sb	a5,112(a1) # 4000070 <_stack_end+0x3efc5b4>
    16a0:	04000637          	lui	a2,0x4000
    16a4:	08f60023          	sb	a5,128(a2) # 4000080 <_stack_end+0x3efc5c4>
    16a8:	040006b7          	lui	a3,0x4000
    16ac:	04000737          	lui	a4,0x4000
    16b0:	08f68823          	sb	a5,144(a3) # 4000090 <_stack_end+0x3efc5d4>
    16b4:	0af70023          	sb	a5,160(a4) # 40000a0 <_stack_end+0x3efc5e4>
    16b8:	00000513          	li	a0,0
    16bc:	f11ff06f          	j	15cc <vault_7segment_puzzle_binary+0x2bc>

000016c0 <handle_room_interaction>:
    16c0:	ff010113          	addi	sp,sp,-16
    16c4:	00812423          	sw	s0,8(sp)
    16c8:	00002437          	lui	s0,0x2
    16cc:	1b440413          	addi	s0,s0,436 # 21b4 <player>
    16d0:	00042783          	lw	a5,0(s0)
    16d4:	00112623          	sw	ra,12(sp)
    16d8:	00700713          	li	a4,7
    16dc:	38f76063          	bltu	a4,a5,1a5c <handle_room_interaction+0x39c>
    16e0:	00002737          	lui	a4,0x2
    16e4:	00279793          	slli	a5,a5,0x2
    16e8:	20070713          	addi	a4,a4,512 # 2200 <timeoutcount+0x28>
    16ec:	00e787b3          	add	a5,a5,a4
    16f0:	0007a783          	lw	a5,0(a5)
    16f4:	00078067          	jr	a5
    16f8:	01c42783          	lw	a5,28(s0)
    16fc:	3e079663          	bnez	a5,1ae8 <handle_room_interaction+0x428>
    1700:	00003537          	lui	a0,0x3
    1704:	4e850513          	addi	a0,a0,1256 # 34e8 <__global_pointer+0xb3b>
    1708:	aa9fe0ef          	jal	1b0 <print>
    170c:	001e8537          	lui	a0,0x1e8
    1710:	48050513          	addi	a0,a0,1152 # 1e8480 <_stack_end+0xe49c4>
    1714:	071000ef          	jal	1f84 <delay>
    1718:	00003537          	lui	a0,0x3
    171c:	50c50513          	addi	a0,a0,1292 # 350c <__global_pointer+0xb5f>
    1720:	a91fe0ef          	jal	1b0 <print>
    1724:	001e8537          	lui	a0,0x1e8
    1728:	48050513          	addi	a0,a0,1152 # 1e8480 <_stack_end+0xe49c4>
    172c:	059000ef          	jal	1f84 <delay>
    1730:	00003537          	lui	a0,0x3
    1734:	52c50513          	addi	a0,a0,1324 # 352c <__global_pointer+0xb7f>
    1738:	a79fe0ef          	jal	1b0 <print>
    173c:	001e8537          	lui	a0,0x1e8
    1740:	48050513          	addi	a0,a0,1152 # 1e8480 <_stack_end+0xe49c4>
    1744:	041000ef          	jal	1f84 <delay>
    1748:	00003537          	lui	a0,0x3
    174c:	56050513          	addi	a0,a0,1376 # 3560 <__global_pointer+0xbb3>
    1750:	a61fe0ef          	jal	1b0 <print>
    1754:	001e8537          	lui	a0,0x1e8
    1758:	48050513          	addi	a0,a0,1152 # 1e8480 <_stack_end+0xe49c4>
    175c:	029000ef          	jal	1f84 <delay>
    1760:	00003537          	lui	a0,0x3
    1764:	58450513          	addi	a0,a0,1412 # 3584 <__global_pointer+0xbd7>
    1768:	a49fe0ef          	jal	1b0 <print>
    176c:	001e8537          	lui	a0,0x1e8
    1770:	48050513          	addi	a0,a0,1152 # 1e8480 <_stack_end+0xe49c4>
    1774:	011000ef          	jal	1f84 <delay>
    1778:	00003537          	lui	a0,0x3
    177c:	5a450513          	addi	a0,a0,1444 # 35a4 <__global_pointer+0xbf7>
    1780:	a31fe0ef          	jal	1b0 <print>
    1784:	00100793          	li	a5,1
    1788:	00f42e23          	sw	a5,28(s0)
    178c:	00c12083          	lw	ra,12(sp)
    1790:	00812403          	lw	s0,8(sp)
    1794:	01010113          	addi	sp,sp,16
    1798:	00008067          	ret
    179c:	01442783          	lw	a5,20(s0)
    17a0:	30079863          	bnez	a5,1ab0 <handle_room_interaction+0x3f0>
    17a4:	00003537          	lui	a0,0x3
    17a8:	ffc50513          	addi	a0,a0,-4 # 2ffc <__global_pointer+0x64f>
    17ac:	00912223          	sw	s1,4(sp)
    17b0:	a01fe0ef          	jal	1b0 <print>
    17b4:	001e8537          	lui	a0,0x1e8
    17b8:	48050513          	addi	a0,a0,1152 # 1e8480 <_stack_end+0xe49c4>
    17bc:	7c8000ef          	jal	1f84 <delay>
    17c0:	00003537          	lui	a0,0x3
    17c4:	01c50513          	addi	a0,a0,28 # 301c <__global_pointer+0x66f>
    17c8:	9e9fe0ef          	jal	1b0 <print>
    17cc:	001e8537          	lui	a0,0x1e8
    17d0:	48050513          	addi	a0,a0,1152 # 1e8480 <_stack_end+0xe49c4>
    17d4:	7b0000ef          	jal	1f84 <delay>
    17d8:	00003537          	lui	a0,0x3
    17dc:	04c50513          	addi	a0,a0,76 # 304c <__global_pointer+0x69f>
    17e0:	9d1fe0ef          	jal	1b0 <print>
    17e4:	001e8537          	lui	a0,0x1e8
    17e8:	48050513          	addi	a0,a0,1152 # 1e8480 <_stack_end+0xe49c4>
    17ec:	798000ef          	jal	1f84 <delay>
    17f0:	00003537          	lui	a0,0x3
    17f4:	08050513          	addi	a0,a0,128 # 3080 <__global_pointer+0x6d3>
    17f8:	9b9fe0ef          	jal	1b0 <print>
    17fc:	001e8537          	lui	a0,0x1e8
    1800:	48050513          	addi	a0,a0,1152 # 1e8480 <_stack_end+0xe49c4>
    1804:	780000ef          	jal	1f84 <delay>
    1808:	00003537          	lui	a0,0x3
    180c:	0ac50513          	addi	a0,a0,172 # 30ac <__global_pointer+0x6ff>
    1810:	9a1fe0ef          	jal	1b0 <print>
    1814:	001e8537          	lui	a0,0x1e8
    1818:	48050513          	addi	a0,a0,1152 # 1e8480 <_stack_end+0xe49c4>
    181c:	768000ef          	jal	1f84 <delay>
    1820:	00003537          	lui	a0,0x3
    1824:	0c850513          	addi	a0,a0,200 # 30c8 <__global_pointer+0x71b>
    1828:	989fe0ef          	jal	1b0 <print>
    182c:	001e8537          	lui	a0,0x1e8
    1830:	48050513          	addi	a0,a0,1152 # 1e8480 <_stack_end+0xe49c4>
    1834:	750000ef          	jal	1f84 <delay>
    1838:	00003537          	lui	a0,0x3
    183c:	0e850513          	addi	a0,a0,232 # 30e8 <__global_pointer+0x73b>
    1840:	040004b7          	lui	s1,0x4000
    1844:	96dfe0ef          	jal	1b0 <print>
    1848:	0d04a783          	lw	a5,208(s1) # 40000d0 <_stack_end+0x3efc614>
    184c:	0d048493          	addi	s1,s1,208
    1850:	0017f793          	andi	a5,a5,1
    1854:	00079c63          	bnez	a5,186c <handle_room_interaction+0x1ac>
    1858:	3e800513          	li	a0,1000
    185c:	728000ef          	jal	1f84 <delay>
    1860:	0004a783          	lw	a5,0(s1)
    1864:	0017f793          	andi	a5,a5,1
    1868:	fe0788e3          	beqz	a5,1858 <handle_room_interaction+0x198>
    186c:	040004b7          	lui	s1,0x4000
    1870:	0d04a783          	lw	a5,208(s1) # 40000d0 <_stack_end+0x3efc614>
    1874:	0d048493          	addi	s1,s1,208
    1878:	0017f793          	andi	a5,a5,1
    187c:	00078c63          	beqz	a5,1894 <handle_room_interaction+0x1d4>
    1880:	3e800513          	li	a0,1000
    1884:	700000ef          	jal	1f84 <delay>
    1888:	0004a783          	lw	a5,0(s1)
    188c:	0017f793          	andi	a5,a5,1
    1890:	fe0798e3          	bnez	a5,1880 <handle_room_interaction+0x1c0>
    1894:	00018537          	lui	a0,0x18
    1898:	6a050513          	addi	a0,a0,1696 # 186a0 <__global_pointer+0x15cf3>
    189c:	6e8000ef          	jal	1f84 <delay>
    18a0:	04000737          	lui	a4,0x4000
    18a4:	01072783          	lw	a5,16(a4) # 4000010 <_stack_end+0x3efc554>
    18a8:	2007f713          	andi	a4,a5,512
    18ac:	26071663          	bnez	a4,1b18 <handle_room_interaction+0x458>
    18b0:	1007f713          	andi	a4,a5,256
    18b4:	0807f793          	andi	a5,a5,128
    18b8:	2e070a63          	beqz	a4,1bac <handle_room_interaction+0x4ec>
    18bc:	2e079063          	bnez	a5,1b9c <handle_room_interaction+0x4dc>
    18c0:	00003537          	lui	a0,0x3
    18c4:	66c50513          	addi	a0,a0,1644 # 366c <__global_pointer+0xcbf>
    18c8:	8e9fe0ef          	jal	1b0 <print>
    18cc:	00200793          	li	a5,2
    18d0:	00f42c23          	sw	a5,24(s0)
    18d4:	00100793          	li	a5,1
    18d8:	00412483          	lw	s1,4(sp)
    18dc:	00f42a23          	sw	a5,20(s0)
    18e0:	eadff06f          	j	178c <handle_room_interaction+0xcc>
    18e4:	00002437          	lui	s0,0x2
    18e8:	04840413          	addi	s0,s0,72 # 2048 <rooms>
    18ec:	06842783          	lw	a5,104(s0)
    18f0:	18079263          	bnez	a5,1a74 <handle_room_interaction+0x3b4>
    18f4:	00003537          	lui	a0,0x3
    18f8:	1dc50513          	addi	a0,a0,476 # 31dc <__global_pointer+0x82f>
    18fc:	8b5fe0ef          	jal	1b0 <print>
    1900:	01313537          	lui	a0,0x1313
    1904:	d0050513          	addi	a0,a0,-768 # 1312d00 <_stack_end+0x120f244>
    1908:	67c000ef          	jal	1f84 <delay>
    190c:	00003537          	lui	a0,0x3
    1910:	21050513          	addi	a0,a0,528 # 3210 <__global_pointer+0x863>
    1914:	89dfe0ef          	jal	1b0 <print>
    1918:	00989537          	lui	a0,0x989
    191c:	68050513          	addi	a0,a0,1664 # 989680 <_stack_end+0x885bc4>
    1920:	664000ef          	jal	1f84 <delay>
    1924:	00003537          	lui	a0,0x3
    1928:	21c50513          	addi	a0,a0,540 # 321c <__global_pointer+0x86f>
    192c:	885fe0ef          	jal	1b0 <print>
    1930:	00989537          	lui	a0,0x989
    1934:	68050513          	addi	a0,a0,1664 # 989680 <_stack_end+0x885bc4>
    1938:	64c000ef          	jal	1f84 <delay>
    193c:	00003537          	lui	a0,0x3
    1940:	23450513          	addi	a0,a0,564 # 3234 <__global_pointer+0x887>
    1944:	86dfe0ef          	jal	1b0 <print>
    1948:	00989537          	lui	a0,0x989
    194c:	68050513          	addi	a0,a0,1664 # 989680 <_stack_end+0x885bc4>
    1950:	634000ef          	jal	1f84 <delay>
    1954:	00003537          	lui	a0,0x3
    1958:	24450513          	addi	a0,a0,580 # 3244 <__global_pointer+0x897>
    195c:	855fe0ef          	jal	1b0 <print>
    1960:	00989537          	lui	a0,0x989
    1964:	68050513          	addi	a0,a0,1664 # 989680 <_stack_end+0x885bc4>
    1968:	61c000ef          	jal	1f84 <delay>
    196c:	00003537          	lui	a0,0x3
    1970:	25850513          	addi	a0,a0,600 # 3258 <__global_pointer+0x8ab>
    1974:	83dfe0ef          	jal	1b0 <print>
    1978:	00989537          	lui	a0,0x989
    197c:	68050513          	addi	a0,a0,1664 # 989680 <_stack_end+0x885bc4>
    1980:	604000ef          	jal	1f84 <delay>
    1984:	00003537          	lui	a0,0x3
    1988:	26c50513          	addi	a0,a0,620 # 326c <__global_pointer+0x8bf>
    198c:	825fe0ef          	jal	1b0 <print>
    1990:	01313537          	lui	a0,0x1313
    1994:	d0050513          	addi	a0,a0,-768 # 1312d00 <_stack_end+0x120f244>
    1998:	5ec000ef          	jal	1f84 <delay>
    199c:	00003537          	lui	a0,0x3
    19a0:	2a850513          	addi	a0,a0,680 # 32a8 <__global_pointer+0x8fb>
    19a4:	80dfe0ef          	jal	1b0 <print>
    19a8:	00100793          	li	a5,1
    19ac:	06f42423          	sw	a5,104(s0)
    19b0:	dddff06f          	j	178c <handle_room_interaction+0xcc>
    19b4:	00912223          	sw	s1,4(sp)
    19b8:	000024b7          	lui	s1,0x2
    19bc:	04848493          	addi	s1,s1,72 # 2048 <rooms>
    19c0:	0884a783          	lw	a5,136(s1)
    19c4:	08c4a703          	lw	a4,140(s1)
    19c8:	10078663          	beqz	a5,1ad4 <handle_room_interaction+0x414>
    19cc:	16070463          	beqz	a4,1b34 <handle_room_interaction+0x474>
    19d0:	00002537          	lui	a0,0x2
    19d4:	00412483          	lw	s1,4(sp)
    19d8:	49050513          	addi	a0,a0,1168 # 2490 <digit27seg+0x270>
    19dc:	0880006f          	j	1a64 <handle_room_interaction+0x3a4>
    19e0:	01042783          	lw	a5,16(s0)
    19e4:	1a079063          	bnez	a5,1b84 <handle_room_interaction+0x4c4>
    19e8:	00c42783          	lw	a5,12(s0)
    19ec:	10078a63          	beqz	a5,1b00 <handle_room_interaction+0x440>
    19f0:	00003537          	lui	a0,0x3
    19f4:	3c450513          	addi	a0,a0,964 # 33c4 <__global_pointer+0xa17>
    19f8:	fb8fe0ef          	jal	1b0 <print>
    19fc:	00989537          	lui	a0,0x989
    1a00:	68050513          	addi	a0,a0,1664 # 989680 <_stack_end+0x885bc4>
    1a04:	580000ef          	jal	1f84 <delay>
    1a08:	ae8ff0ef          	jal	cf0 <reaction_challenge>
    1a0c:	18050263          	beqz	a0,1b90 <handle_room_interaction+0x4d0>
    1a10:	00003537          	lui	a0,0x3
    1a14:	00100793          	li	a5,1
    1a18:	3f850513          	addi	a0,a0,1016 # 33f8 <__global_pointer+0xa4b>
    1a1c:	00f42823          	sw	a5,16(s0)
    1a20:	0440006f          	j	1a64 <handle_room_interaction+0x3a4>
    1a24:	01042783          	lw	a5,16(s0)
    1a28:	06079263          	bnez	a5,1a8c <handle_room_interaction+0x3cc>
    1a2c:	00003537          	lui	a0,0x3
    1a30:	48050513          	addi	a0,a0,1152 # 3480 <__global_pointer+0xad3>
    1a34:	0300006f          	j	1a64 <handle_room_interaction+0x3a4>
    1a38:	00842783          	lw	a5,8(s0)
    1a3c:	0a079c63          	bnez	a5,1af4 <handle_room_interaction+0x434>
    1a40:	8d1ff0ef          	jal	1310 <vault_7segment_puzzle_binary>
    1a44:	d40504e3          	beqz	a0,178c <handle_room_interaction+0xcc>
    1a48:	00003537          	lui	a0,0x3
    1a4c:	00100793          	li	a5,1
    1a50:	1bc50513          	addi	a0,a0,444 # 31bc <__global_pointer+0x80f>
    1a54:	00f42423          	sw	a5,8(s0)
    1a58:	00c0006f          	j	1a64 <handle_room_interaction+0x3a4>
    1a5c:	00003537          	lui	a0,0x3
    1a60:	62850513          	addi	a0,a0,1576 # 3628 <__global_pointer+0xc7b>
    1a64:	00812403          	lw	s0,8(sp)
    1a68:	00c12083          	lw	ra,12(sp)
    1a6c:	01010113          	addi	sp,sp,16
    1a70:	f40fe06f          	j	1b0 <print>
    1a74:	00002537          	lui	a0,0x2
    1a78:	62050513          	addi	a0,a0,1568 # 2620 <digit27seg+0x400>
    1a7c:	f34fe0ef          	jal	1b0 <print>
    1a80:	00003537          	lui	a0,0x3
    1a84:	2cc50513          	addi	a0,a0,716 # 32cc <__global_pointer+0x91f>
    1a88:	fddff06f          	j	1a64 <handle_room_interaction+0x3a4>
    1a8c:	00912223          	sw	s1,4(sp)
    1a90:	000024b7          	lui	s1,0x2
    1a94:	04848493          	addi	s1,s1,72 # 2048 <rooms>
    1a98:	0f84a783          	lw	a5,248(s1)
    1a9c:	0c078463          	beqz	a5,1b64 <handle_room_interaction+0x4a4>
    1aa0:	00003537          	lui	a0,0x3
    1aa4:	00412483          	lw	s1,4(sp)
    1aa8:	4bc50513          	addi	a0,a0,1212 # 34bc <__global_pointer+0xb0f>
    1aac:	fb9ff06f          	j	1a64 <handle_room_interaction+0x3a4>
    1ab0:	00003537          	lui	a0,0x3
    1ab4:	15c50513          	addi	a0,a0,348 # 315c <__global_pointer+0x7af>
    1ab8:	ef8fe0ef          	jal	1b0 <print>
    1abc:	001e8537          	lui	a0,0x1e8
    1ac0:	48050513          	addi	a0,a0,1152 # 1e8480 <_stack_end+0xe49c4>
    1ac4:	4c0000ef          	jal	1f84 <delay>
    1ac8:	00003537          	lui	a0,0x3
    1acc:	18850513          	addi	a0,a0,392 # 3188 <__global_pointer+0x7db>
    1ad0:	f95ff06f          	j	1a64 <handle_room_interaction+0x3a4>
    1ad4:	ee071ee3          	bnez	a4,19d0 <handle_room_interaction+0x310>
    1ad8:	00003537          	lui	a0,0x3
    1adc:	00412483          	lw	s1,4(sp)
    1ae0:	34450513          	addi	a0,a0,836 # 3344 <__global_pointer+0x997>
    1ae4:	f81ff06f          	j	1a64 <handle_room_interaction+0x3a4>
    1ae8:	00003537          	lui	a0,0x3
    1aec:	5e450513          	addi	a0,a0,1508 # 35e4 <__global_pointer+0xc37>
    1af0:	f75ff06f          	j	1a64 <handle_room_interaction+0x3a4>
    1af4:	00002537          	lui	a0,0x2
    1af8:	40850513          	addi	a0,a0,1032 # 2408 <digit27seg+0x1e8>
    1afc:	f69ff06f          	j	1a64 <handle_room_interaction+0x3a4>
    1b00:	00003537          	lui	a0,0x3
    1b04:	36450513          	addi	a0,a0,868 # 3364 <__global_pointer+0x9b7>
    1b08:	ea8fe0ef          	jal	1b0 <print>
    1b0c:	00003537          	lui	a0,0x3
    1b10:	39c50513          	addi	a0,a0,924 # 339c <__global_pointer+0x9ef>
    1b14:	f51ff06f          	j	1a64 <handle_room_interaction+0x3a4>
    1b18:	1807f793          	andi	a5,a5,384
    1b1c:	08079063          	bnez	a5,1b9c <handle_room_interaction+0x4dc>
    1b20:	00003537          	lui	a0,0x3
    1b24:	65050513          	addi	a0,a0,1616 # 3650 <__global_pointer+0xca3>
    1b28:	e88fe0ef          	jal	1b0 <print>
    1b2c:	00100793          	li	a5,1
    1b30:	da1ff06f          	j	18d0 <handle_room_interaction+0x210>
    1b34:	d64ff0ef          	jal	1098 <office_memory_challenge>
    1b38:	08050663          	beqz	a0,1bc4 <handle_room_interaction+0x504>
    1b3c:	00003537          	lui	a0,0x3
    1b40:	01212023          	sw	s2,0(sp)
    1b44:	2f050513          	addi	a0,a0,752 # 32f0 <__global_pointer+0x943>
    1b48:	00100913          	li	s2,1
    1b4c:	01242623          	sw	s2,12(s0)
    1b50:	e60fe0ef          	jal	1b0 <print>
    1b54:	0924a623          	sw	s2,140(s1)
    1b58:	00412483          	lw	s1,4(sp)
    1b5c:	00012903          	lw	s2,0(sp)
    1b60:	c2dff06f          	j	178c <handle_room_interaction+0xcc>
    1b64:	00003537          	lui	a0,0x3
    1b68:	46450513          	addi	a0,a0,1124 # 3464 <__global_pointer+0xab7>
    1b6c:	e44fe0ef          	jal	1b0 <print>
    1b70:	00100793          	li	a5,1
    1b74:	0ef4ac23          	sw	a5,248(s1)
    1b78:	00f42223          	sw	a5,4(s0)
    1b7c:	00412483          	lw	s1,4(sp)
    1b80:	c0dff06f          	j	178c <handle_room_interaction+0xcc>
    1b84:	00002537          	lui	a0,0x2
    1b88:	67c50513          	addi	a0,a0,1660 # 267c <digit27seg+0x45c>
    1b8c:	ed9ff06f          	j	1a64 <handle_room_interaction+0x3a4>
    1b90:	00003537          	lui	a0,0x3
    1b94:	42c50513          	addi	a0,a0,1068 # 342c <__global_pointer+0xa7f>
    1b98:	ecdff06f          	j	1a64 <handle_room_interaction+0x3a4>
    1b9c:	00003537          	lui	a0,0x3
    1ba0:	00412483          	lw	s1,4(sp)
    1ba4:	13450513          	addi	a0,a0,308 # 3134 <__global_pointer+0x787>
    1ba8:	ebdff06f          	j	1a64 <handle_room_interaction+0x3a4>
    1bac:	fe0788e3          	beqz	a5,1b9c <handle_room_interaction+0x4dc>
    1bb0:	00003537          	lui	a0,0x3
    1bb4:	11850513          	addi	a0,a0,280 # 3118 <__global_pointer+0x76b>
    1bb8:	df8fe0ef          	jal	1b0 <print>
    1bbc:	00300793          	li	a5,3
    1bc0:	d11ff06f          	j	18d0 <handle_room_interaction+0x210>
    1bc4:	00003537          	lui	a0,0x3
    1bc8:	00412483          	lw	s1,4(sp)
    1bcc:	31050513          	addi	a0,a0,784 # 3310 <__global_pointer+0x963>
    1bd0:	e95ff06f          	j	1a64 <handle_room_interaction+0x3a4>

00001bd4 <main>:
    1bd4:	00003537          	lui	a0,0x3
    1bd8:	fc010113          	addi	sp,sp,-64
    1bdc:	68c50513          	addi	a0,a0,1676 # 368c <__global_pointer+0xcdf>
    1be0:	02112e23          	sw	ra,60(sp)
    1be4:	02912a23          	sw	s1,52(sp)
    1be8:	03212823          	sw	s2,48(sp)
    1bec:	03312623          	sw	s3,44(sp)
    1bf0:	03412423          	sw	s4,40(sp)
    1bf4:	03512223          	sw	s5,36(sp)
    1bf8:	03612023          	sw	s6,32(sp)
    1bfc:	01712e23          	sw	s7,28(sp)
    1c00:	01812c23          	sw	s8,24(sp)
    1c04:	01912a23          	sw	s9,20(sp)
    1c08:	01a12823          	sw	s10,16(sp)
    1c0c:	01b12623          	sw	s11,12(sp)
    1c10:	02812c23          	sw	s0,56(sp)
    1c14:	d9cfe0ef          	jal	1b0 <print>
    1c18:	00e4e537          	lui	a0,0xe4e
    1c1c:	1c050513          	addi	a0,a0,448 # e4e1c0 <_stack_end+0xd4a704>
    1c20:	364000ef          	jal	1f84 <delay>
    1c24:	00003537          	lui	a0,0x3
    1c28:	6b050513          	addi	a0,a0,1712 # 36b0 <__global_pointer+0xd03>
    1c2c:	d84fe0ef          	jal	1b0 <print>
    1c30:	01313537          	lui	a0,0x1313
    1c34:	d0050513          	addi	a0,a0,-768 # 1312d00 <_stack_end+0x120f244>
    1c38:	34c000ef          	jal	1f84 <delay>
    1c3c:	00003537          	lui	a0,0x3
    1c40:	6dc50513          	addi	a0,a0,1756 # 36dc <__global_pointer+0xd2f>
    1c44:	d6cfe0ef          	jal	1b0 <print>
    1c48:	01313537          	lui	a0,0x1313
    1c4c:	d0050513          	addi	a0,a0,-768 # 1312d00 <_stack_end+0x120f244>
    1c50:	334000ef          	jal	1f84 <delay>
    1c54:	00003537          	lui	a0,0x3
    1c58:	70c50513          	addi	a0,a0,1804 # 370c <__global_pointer+0xd5f>
    1c5c:	d54fe0ef          	jal	1b0 <print>
    1c60:	01313537          	lui	a0,0x1313
    1c64:	d0050513          	addi	a0,a0,-768 # 1312d00 <_stack_end+0x120f244>
    1c68:	31c000ef          	jal	1f84 <delay>
    1c6c:	040009b7          	lui	s3,0x4000
    1c70:	9a1fe0ef          	jal	610 <display_current_room>
    1c74:	04000937          	lui	s2,0x4000
    1c78:	000f4a37          	lui	s4,0xf4
    1c7c:	00989b37          	lui	s6,0x989
    1c80:	000024b7          	lui	s1,0x2
    1c84:	00002cb7          	lui	s9,0x2
    1c88:	00002ab7          	lui	s5,0x2
    1c8c:	00000713          	li	a4,0
    1c90:	048c8c93          	addi	s9,s9,72 # 2048 <rooms>
    1c94:	1b4a8a93          	addi	s5,s5,436 # 21b4 <player>
    1c98:	00003db7          	lui	s11,0x3
    1c9c:	00003c37          	lui	s8,0x3
    1ca0:	00003bb7          	lui	s7,0x3
    1ca4:	01098993          	addi	s3,s3,16 # 4000010 <_stack_end+0x3efc554>
    1ca8:	0d090913          	addi	s2,s2,208 # 40000d0 <_stack_end+0x3efc614>
    1cac:	240a0a13          	addi	s4,s4,576 # f4240 <__global_pointer+0xf1893>
    1cb0:	680b0b13          	addi	s6,s6,1664 # 989680 <_stack_end+0x885bc4>
    1cb4:	fff00d13          	li	s10,-1
    1cb8:	71048493          	addi	s1,s1,1808 # 2710 <digit27seg+0x4f0>
    1cbc:	0740006f          	j	1d30 <main+0x15c>
    1cc0:	00c7f793          	andi	a5,a5,12
    1cc4:	0a079463          	bnez	a5,1d6c <main+0x198>
    1cc8:	0a069263          	bnez	a3,1d6c <main+0x198>
    1ccc:	000aa703          	lw	a4,0(s5)
    1cd0:	00371793          	slli	a5,a4,0x3
    1cd4:	00e787b3          	add	a5,a5,a4
    1cd8:	00279793          	slli	a5,a5,0x2
    1cdc:	00fc87b3          	add	a5,s9,a5
    1ce0:	0107a703          	lw	a4,16(a5)
    1ce4:	11a70063          	beq	a4,s10,1de4 <main+0x210>
    1ce8:	00371793          	slli	a5,a4,0x3
    1cec:	00e787b3          	add	a5,a5,a4
    1cf0:	00279793          	slli	a5,a5,0x2
    1cf4:	00fc87b3          	add	a5,s9,a5
    1cf8:	0187a783          	lw	a5,24(a5)
    1cfc:	00078663          	beqz	a5,1d08 <main+0x134>
    1d00:	00caa783          	lw	a5,12(s5)
    1d04:	0e078863          	beqz	a5,1df4 <main+0x220>
    1d08:	000037b7          	lui	a5,0x3
    1d0c:	95478513          	addi	a0,a5,-1708 # 2954 <digit27seg+0x734>
    1d10:	00eaa023          	sw	a4,0(s5)
    1d14:	c9cfe0ef          	jal	1b0 <print>
    1d18:	8f9fe0ef          	jal	610 <display_current_room>
    1d1c:	000a0513          	mv	a0,s4
    1d20:	264000ef          	jal	1f84 <delay>
    1d24:	00048513          	mv	a0,s1
    1d28:	25c000ef          	jal	1f84 <delay>
    1d2c:	00040713          	mv	a4,s0
    1d30:	0009a783          	lw	a5,0(s3)
    1d34:	00092403          	lw	s0,0(s2)
    1d38:	00147413          	andi	s0,s0,1
    1d3c:	fe0404e3          	beqz	s0,1d24 <main+0x150>
    1d40:	fe0712e3          	bnez	a4,1d24 <main+0x150>
    1d44:	0027f713          	andi	a4,a5,2
    1d48:	0017f693          	andi	a3,a5,1
    1d4c:	f6071ae3          	bnez	a4,1cc0 <main+0xec>
    1d50:	0047f713          	andi	a4,a5,4
    1d54:	0087f793          	andi	a5,a5,8
    1d58:	02070863          	beqz	a4,1d88 <main+0x1b4>
    1d5c:	00079863          	bnez	a5,1d6c <main+0x198>
    1d60:	00069663          	bnez	a3,1d6c <main+0x198>
    1d64:	d59fe0ef          	jal	abc <go_south>
    1d68:	fb5ff06f          	j	1d1c <main+0x148>
    1d6c:	738c0513          	addi	a0,s8,1848 # 3738 <__global_pointer+0xd8b>
    1d70:	c40fe0ef          	jal	1b0 <print>
    1d74:	000b0513          	mv	a0,s6
    1d78:	20c000ef          	jal	1f84 <delay>
    1d7c:	768b8513          	addi	a0,s7,1896 # 3768 <__global_pointer+0xdbb>
    1d80:	c30fe0ef          	jal	1b0 <print>
    1d84:	f99ff06f          	j	1d1c <main+0x148>
    1d88:	00078863          	beqz	a5,1d98 <main+0x1c4>
    1d8c:	fe0690e3          	bnez	a3,1d6c <main+0x198>
    1d90:	ccdfe0ef          	jal	a5c <go_north>
    1d94:	f89ff06f          	j	1d1c <main+0x148>
    1d98:	00069663          	bnez	a3,1da4 <main+0x1d0>
    1d9c:	925ff0ef          	jal	16c0 <handle_room_interaction>
    1da0:	f7dff06f          	j	1d1c <main+0x148>
    1da4:	000aa703          	lw	a4,0(s5)
    1da8:	00371793          	slli	a5,a4,0x3
    1dac:	00e787b3          	add	a5,a5,a4
    1db0:	00279793          	slli	a5,a5,0x2
    1db4:	00fc87b3          	add	a5,s9,a5
    1db8:	0147a783          	lw	a5,20(a5)
    1dbc:	01a78c63          	beq	a5,s10,1dd4 <main+0x200>
    1dc0:	984d8513          	addi	a0,s11,-1660 # 2984 <digit27seg+0x764>
    1dc4:	00faa023          	sw	a5,0(s5)
    1dc8:	be8fe0ef          	jal	1b0 <print>
    1dcc:	845fe0ef          	jal	610 <display_current_room>
    1dd0:	f4dff06f          	j	1d1c <main+0x148>
    1dd4:	000037b7          	lui	a5,0x3
    1dd8:	96478513          	addi	a0,a5,-1692 # 2964 <digit27seg+0x744>
    1ddc:	bd4fe0ef          	jal	1b0 <print>
    1de0:	f3dff06f          	j	1d1c <main+0x148>
    1de4:	000037b7          	lui	a5,0x3
    1de8:	8f478513          	addi	a0,a5,-1804 # 28f4 <digit27seg+0x6d4>
    1dec:	bc4fe0ef          	jal	1b0 <print>
    1df0:	f2dff06f          	j	1d1c <main+0x148>
    1df4:	000037b7          	lui	a5,0x3
    1df8:	91478513          	addi	a0,a5,-1772 # 2914 <digit27seg+0x6f4>
    1dfc:	bb4fe0ef          	jal	1b0 <print>
    1e00:	f1dff06f          	j	1d1c <main+0x148>
    1e04:	01c000ef          	jal	1e20 <timetemplate>

00001e08 <display_string>:
    1e08:	00400893          	li	a7,4
    1e0c:	00000073          	ecall
    1e10:	00a00513          	li	a0,10
    1e14:	00b00893          	li	a7,11
    1e18:	00000073          	ecall
    1e1c:	00008067          	ret

00001e20 <timetemplate>:
    1e20:	00000517          	auipc	a0,0x0
    1e24:	37050513          	addi	a0,a0,880 # 2190 <timstr>
    1e28:	fe1ff0ef          	jal	1e08 <display_string>
    1e2c:	00200513          	li	a0,2
    1e30:	154000ef          	jal	1f84 <delay>
    1e34:	00000517          	auipc	a0,0x0
    1e38:	35850513          	addi	a0,a0,856 # 218c <mytime>
    1e3c:	020000ef          	jal	1e5c <tick>
    1e40:	00000517          	auipc	a0,0x0
    1e44:	35050513          	addi	a0,a0,848 # 2190 <timstr>
    1e48:	00000297          	auipc	t0,0x0
    1e4c:	34428293          	addi	t0,t0,836 # 218c <mytime>
    1e50:	0002a583          	lw	a1,0(t0)
    1e54:	080000ef          	jal	1ed4 <time2string>
    1e58:	fc9ff06f          	j	1e20 <timetemplate>

00001e5c <tick>:
    1e5c:	00052283          	lw	t0,0(a0)
    1e60:	00128293          	addi	t0,t0,1
    1e64:	00f2f313          	andi	t1,t0,15
    1e68:	00a33393          	sltiu	t2,t1,10
    1e6c:	06039063          	bnez	t2,1ecc <tiend>
    1e70:	00628293          	addi	t0,t0,6
    1e74:	0f02f313          	andi	t1,t0,240
    1e78:	06033393          	sltiu	t2,t1,96
    1e7c:	04039863          	bnez	t2,1ecc <tiend>
    1e80:	0a028293          	addi	t0,t0,160
    1e84:	00f00e13          	li	t3,15
    1e88:	008e1e13          	slli	t3,t3,0x8
    1e8c:	01c2f333          	and	t1,t0,t3
    1e90:	00a00e13          	li	t3,10
    1e94:	008e1e13          	slli	t3,t3,0x8
    1e98:	01c323b3          	slt	t2,t1,t3
    1e9c:	02039863          	bnez	t2,1ecc <tiend>
    1ea0:	60028293          	addi	t0,t0,1536
    1ea4:	00f00e13          	li	t3,15
    1ea8:	00ce1e13          	slli	t3,t3,0xc
    1eac:	01c2f333          	and	t1,t0,t3
    1eb0:	00600e13          	li	t3,6
    1eb4:	00ce1e13          	slli	t3,t3,0xc
    1eb8:	01c323b3          	slt	t2,t1,t3
    1ebc:	00039863          	bnez	t2,1ecc <tiend>
    1ec0:	00a00e13          	li	t3,10
    1ec4:	00ce1e13          	slli	t3,t3,0xc
    1ec8:	01c282b3          	add	t0,t0,t3

00001ecc <tiend>:
    1ecc:	00552023          	sw	t0,0(a0)
    1ed0:	00008067          	ret

00001ed4 <time2string>:
    1ed4:	00008313          	mv	t1,ra
    1ed8:	00050413          	mv	s0,a0
    1edc:	00c5d293          	srli	t0,a1,0xc
    1ee0:	00f2f293          	andi	t0,t0,15
    1ee4:	00028513          	mv	a0,t0
    1ee8:	07c000ef          	jal	1f64 <hexasc>
    1eec:	00a40023          	sb	a0,0(s0)
    1ef0:	0085d293          	srli	t0,a1,0x8
    1ef4:	00f2f293          	andi	t0,t0,15
    1ef8:	00028513          	mv	a0,t0
    1efc:	068000ef          	jal	1f64 <hexasc>
    1f00:	00a400a3          	sb	a0,1(s0)
    1f04:	03a00293          	li	t0,58
    1f08:	00540123          	sb	t0,2(s0)
    1f0c:	0045d293          	srli	t0,a1,0x4
    1f10:	00f2f293          	andi	t0,t0,15
    1f14:	00028513          	mv	a0,t0
    1f18:	04c000ef          	jal	1f64 <hexasc>
    1f1c:	00a401a3          	sb	a0,3(s0)
    1f20:	0005d293          	srli	t0,a1,0x0
    1f24:	00f2f293          	andi	t0,t0,15
    1f28:	00028513          	mv	a0,t0
    1f2c:	038000ef          	jal	1f64 <hexasc>
    1f30:	00a40223          	sb	a0,4(s0)
    1f34:	000402a3          	sb	zero,5(s0)
    1f38:	00030093          	mv	ra,t1
    1f3c:	00008067          	ret

00001f40 <hex2asc>:
    1f40:	00400513          	li	a0,4
    1f44:	ffc10113          	addi	sp,sp,-4
    1f48:	00112023          	sw	ra,0(sp)
    1f4c:	018000ef          	jal	1f64 <hexasc>
    1f50:	00b00893          	li	a7,11
    1f54:	00000073          	ecall
    1f58:	00012083          	lw	ra,0(sp)
    1f5c:	00410113          	addi	sp,sp,4
    1f60:	00008067          	ret

00001f64 <hexasc>:
    1f64:	00f57513          	andi	a0,a0,15
    1f68:	00a00293          	li	t0,10
    1f6c:	00555663          	bge	a0,t0,1f78 <letter>
    1f70:	03050513          	addi	a0,a0,48
    1f74:	00008067          	ret

00001f78 <letter>:
    1f78:	ff650513          	addi	a0,a0,-10
    1f7c:	04150513          	addi	a0,a0,65
    1f80:	00008067          	ret

00001f84 <delay>:
    1f84:	00008293          	mv	t0,ra
    1f88:	00050393          	mv	t2,a0
    1f8c:	00001337          	lui	t1,0x1
    1f90:	26730313          	addi	t1,t1,615 # 1267 <office_memory_challenge+0x1cf>
    1f94:	00000e13          	li	t3,0

00001f98 <outer>:
    1f98:	00705a63          	blez	t2,1fac <delay_done>
    1f9c:	fff38393          	addi	t2,t2,-1

00001fa0 <inner>:
    1fa0:	fe6e5ce3          	bge	t3,t1,1f98 <outer>
    1fa4:	001e0e13          	addi	t3,t3,1
    1fa8:	ff9ff06f          	j	1fa0 <inner>

00001fac <delay_done>:
    1fac:	00028093          	mv	ra,t0
    1fb0:	00008067          	ret
