
main.elf:     file format elf32-littleriscv


Disassembly of section .text:

00000000 <_isr_handler>:
       0:	0080006f          	j	8 <_isr_routine>
       4:	1440006f          	j	148 <_start>

00000008 <_isr_routine>:
       8:	f8010113          	addi	sp,sp,-128
       c:	00112023          	sw	ra,0(sp)
      10:	00312423          	sw	gp,8(sp)
      14:	00412623          	sw	tp,12(sp)
      18:	00512823          	sw	t0,16(sp)
      1c:	00612a23          	sw	t1,20(sp)
      20:	00712c23          	sw	t2,24(sp)
      24:	00812e23          	sw	s0,28(sp)
      28:	02912023          	sw	s1,32(sp)
      2c:	02a12223          	sw	a0,36(sp)
      30:	02b12423          	sw	a1,40(sp)
      34:	02c12623          	sw	a2,44(sp)
      38:	02d12823          	sw	a3,48(sp)
      3c:	02e12a23          	sw	a4,52(sp)
      40:	02f12c23          	sw	a5,56(sp)
      44:	03012e23          	sw	a6,60(sp)
      48:	05112023          	sw	a7,64(sp)
      4c:	05212223          	sw	s2,68(sp)
      50:	05312423          	sw	s3,72(sp)
      54:	05412623          	sw	s4,76(sp)
      58:	05512823          	sw	s5,80(sp)
      5c:	05612a23          	sw	s6,84(sp)
      60:	05712c23          	sw	s7,88(sp)
      64:	05812e23          	sw	s8,92(sp)
      68:	07912023          	sw	s9,96(sp)
      6c:	07a12223          	sw	s10,100(sp)
      70:	07b12423          	sw	s11,104(sp)
      74:	07c12623          	sw	t3,108(sp)
      78:	07d12823          	sw	t4,112(sp)
      7c:	07e12a23          	sw	t5,116(sp)
      80:	07f12c23          	sw	t6,120(sp)
      84:	342022f3          	csrr	t0,mcause
      88:	80000337          	lui	t1,0x80000
      8c:	02536463          	bltu	t1,t0,b4 <external_irq>
      90:	00028833          	add	a6,t0,zero
      94:	00b00313          	li	t1,11
      98:	00628463          	beq	t0,t1,a0 <skip_init_args>
      9c:	34102573          	csrr	a0,mepc

000000a0 <skip_init_args>:
      a0:	258000ef          	jal	2f8 <handle_exception>
      a4:	341022f3          	csrr	t0,mepc
      a8:	00428293          	addi	t0,t0,4
      ac:	34129073          	csrw	mepc,t0
      b0:	0180006f          	j	c8 <restore>

000000b4 <external_irq>:
      b4:	800002b7          	lui	t0,0x80000
      b8:	fff28293          	addi	t0,t0,-1 # 7fffffff <_stack_end+0x7fefc543>
      bc:	34202373          	csrr	t1,mcause
      c0:	0062f533          	and	a0,t0,t1
      c4:	401000ef          	jal	cc4 <handle_interrupt>

000000c8 <restore>:
      c8:	00012083          	lw	ra,0(sp)
      cc:	00812183          	lw	gp,8(sp)
      d0:	00c12203          	lw	tp,12(sp)
      d4:	01012283          	lw	t0,16(sp)
      d8:	01412303          	lw	t1,20(sp)
      dc:	01812383          	lw	t2,24(sp)
      e0:	01c12403          	lw	s0,28(sp)
      e4:	02012483          	lw	s1,32(sp)
      e8:	02412503          	lw	a0,36(sp)
      ec:	02812583          	lw	a1,40(sp)
      f0:	02c12603          	lw	a2,44(sp)
      f4:	03012683          	lw	a3,48(sp)
      f8:	03412703          	lw	a4,52(sp)
      fc:	03812783          	lw	a5,56(sp)
     100:	03c12803          	lw	a6,60(sp)
     104:	04012883          	lw	a7,64(sp)
     108:	04412903          	lw	s2,68(sp)
     10c:	04812983          	lw	s3,72(sp)
     110:	04c12a03          	lw	s4,76(sp)
     114:	05012a83          	lw	s5,80(sp)
     118:	05412b03          	lw	s6,84(sp)
     11c:	05812b83          	lw	s7,88(sp)
     120:	05c12c03          	lw	s8,92(sp)
     124:	06012c83          	lw	s9,96(sp)
     128:	06412d03          	lw	s10,100(sp)
     12c:	06812d83          	lw	s11,104(sp)
     130:	06c12e03          	lw	t3,108(sp)
     134:	07012e83          	lw	t4,112(sp)
     138:	07412f03          	lw	t5,116(sp)
     13c:	07812f83          	lw	t6,120(sp)
     140:	08010113          	addi	sp,sp,128
     144:	30200073          	mret

00000148 <_start>:
     148:	30401073          	csrw	mie,zero
     14c:	00104117          	auipc	sp,0x104
     150:	97010113          	addi	sp,sp,-1680 # 103abc <_stack_end>
     154:	00003197          	auipc	gp,0x3
     158:	85918193          	addi	gp,gp,-1959 # 29ad <__global_pointer>
     15c:	00002517          	auipc	a0,0x2
     160:	e5850513          	addi	a0,a0,-424 # 1fb4 <welcome_msg>
     164:	00400893          	li	a7,4
     168:	00000073          	ecall
     16c:	269010ef          	jal	1bd4 <main>

00000170 <loop>:
     170:	0000006f          	j	170 <loop>

00000174 <enable_interrupt>:
     174:	00100293          	li	t0,1
     178:	01029293          	slli	t0,t0,0x10
     17c:	3042a073          	csrs	mie,t0
     180:	00100293          	li	t0,1
     184:	00329293          	slli	t0,t0,0x3
     188:	3002a073          	csrs	mstatus,t0
     18c:	00008067          	ret

00000190 <printc>:
     190:	04000737          	lui	a4,0x4000
     194:	04470713          	addi	a4,a4,68 # 4000044 <_stack_end+0x3efc588>
     198:	000106b7          	lui	a3,0x10
     19c:	00072783          	lw	a5,0(a4)
     1a0:	fed7eee3          	bltu	a5,a3,19c <printc+0xc>
     1a4:	040007b7          	lui	a5,0x4000
     1a8:	04a7a023          	sw	a0,64(a5) # 4000040 <_stack_end+0x3efc584>
     1ac:	00008067          	ret

000001b0 <print>:
     1b0:	00054603          	lbu	a2,0(a0)
     1b4:	02060863          	beqz	a2,1e4 <print+0x34>
     1b8:	04000737          	lui	a4,0x4000
     1bc:	040005b7          	lui	a1,0x4000
     1c0:	04470713          	addi	a4,a4,68 # 4000044 <_stack_end+0x3efc588>
     1c4:	000106b7          	lui	a3,0x10
     1c8:	04058593          	addi	a1,a1,64 # 4000040 <_stack_end+0x3efc584>
     1cc:	00072783          	lw	a5,0(a4)
     1d0:	fed7eee3          	bltu	a5,a3,1cc <print+0x1c>
     1d4:	00c5a023          	sw	a2,0(a1)
     1d8:	00154603          	lbu	a2,1(a0)
     1dc:	00150513          	addi	a0,a0,1
     1e0:	fe0616e3          	bnez	a2,1cc <print+0x1c>
     1e4:	00008067          	ret

000001e8 <print_dec>:
     1e8:	3b9ad737          	lui	a4,0x3b9ad
     1ec:	040006b7          	lui	a3,0x4000
     1f0:	04000337          	lui	t1,0x4000
     1f4:	00a00593          	li	a1,10
     1f8:	00000793          	li	a5,0
     1fc:	a0070713          	addi	a4,a4,-1536 # 3b9aca00 <_stack_end+0x3b8a8f44>
     200:	04468693          	addi	a3,a3,68 # 4000044 <_stack_end+0x3efc588>
     204:	00010637          	lui	a2,0x10
     208:	04030313          	addi	t1,t1,64 # 4000040 <_stack_end+0x3efc584>
     20c:	00a00893          	li	a7,10
     210:	04e57063          	bgeu	a0,a4,250 <print_dec+0x68>
     214:	02079e63          	bnez	a5,250 <print_dec+0x68>
     218:	fff58593          	addi	a1,a1,-1
     21c:	02e57533          	remu	a0,a0,a4
     220:	03175733          	divu	a4,a4,a7
     224:	fe0596e3          	bnez	a1,210 <print_dec+0x28>
     228:	02079263          	bnez	a5,24c <print_dec+0x64>
     22c:	04000737          	lui	a4,0x4000
     230:	04470713          	addi	a4,a4,68 # 4000044 <_stack_end+0x3efc588>
     234:	000106b7          	lui	a3,0x10
     238:	00072783          	lw	a5,0(a4)
     23c:	fed7eee3          	bltu	a5,a3,238 <print_dec+0x50>
     240:	040007b7          	lui	a5,0x4000
     244:	03000713          	li	a4,48
     248:	04e7a023          	sw	a4,64(a5) # 4000040 <_stack_end+0x3efc584>
     24c:	00008067          	ret
     250:	02e55833          	divu	a6,a0,a4
     254:	03080813          	addi	a6,a6,48
     258:	0ff87813          	zext.b	a6,a6
     25c:	0006a783          	lw	a5,0(a3) # 10000 <__global_pointer+0xd653>
     260:	fec7eee3          	bltu	a5,a2,25c <print_dec+0x74>
     264:	01032023          	sw	a6,0(t1)
     268:	00100793          	li	a5,1
     26c:	fadff06f          	j	218 <print_dec+0x30>

00000270 <print_hex32>:
     270:	04000737          	lui	a4,0x4000
     274:	04470713          	addi	a4,a4,68 # 4000044 <_stack_end+0x3efc588>
     278:	000106b7          	lui	a3,0x10
     27c:	00072783          	lw	a5,0(a4)
     280:	fed7eee3          	bltu	a5,a3,27c <print_hex32+0xc>
     284:	03000693          	li	a3,48
     288:	040007b7          	lui	a5,0x4000
     28c:	04000737          	lui	a4,0x4000
     290:	04d7a023          	sw	a3,64(a5) # 4000040 <_stack_end+0x3efc584>
     294:	04470713          	addi	a4,a4,68 # 4000044 <_stack_end+0x3efc588>
     298:	000106b7          	lui	a3,0x10
     29c:	00072783          	lw	a5,0(a4)
     2a0:	fed7eee3          	bltu	a5,a3,29c <print_hex32+0x2c>
     2a4:	04000837          	lui	a6,0x4000
     2a8:	04080813          	addi	a6,a6,64 # 4000040 <_stack_end+0x3efc584>
     2ac:	04000737          	lui	a4,0x4000
     2b0:	07800793          	li	a5,120
     2b4:	00f82023          	sw	a5,0(a6)
     2b8:	01c00613          	li	a2,28
     2bc:	00900313          	li	t1,9
     2c0:	04470713          	addi	a4,a4,68 # 4000044 <_stack_end+0x3efc588>
     2c4:	000106b7          	lui	a3,0x10
     2c8:	ffc00893          	li	a7,-4
     2cc:	00c557b3          	srl	a5,a0,a2
     2d0:	00f7f793          	andi	a5,a5,15
     2d4:	03778593          	addi	a1,a5,55
     2d8:	00f36463          	bltu	t1,a5,2e0 <print_hex32+0x70>
     2dc:	03078593          	addi	a1,a5,48
     2e0:	00072783          	lw	a5,0(a4)
     2e4:	fed7eee3          	bltu	a5,a3,2e0 <print_hex32+0x70>
     2e8:	00b82023          	sw	a1,0(a6)
     2ec:	ffc60613          	addi	a2,a2,-4 # fffc <__global_pointer+0xd64f>
     2f0:	fd161ee3          	bne	a2,a7,2cc <print_hex32+0x5c>
     2f4:	00008067          	ret

000002f8 <handle_exception>:
     2f8:	00200793          	li	a5,2
     2fc:	18f80863          	beq	a6,a5,48c <handle_exception+0x194>
     300:	00b00793          	li	a5,11
     304:	12f80063          	beq	a6,a5,424 <handle_exception+0x12c>
     308:	04000737          	lui	a4,0x4000
     30c:	14081463          	bnez	a6,454 <handle_exception+0x15c>
     310:	04000837          	lui	a6,0x4000
     314:	00002637          	lui	a2,0x2
     318:	24460613          	addi	a2,a2,580 # 2244 <digit27seg+0x24>
     31c:	00a00593          	li	a1,10
     320:	04470713          	addi	a4,a4,68 # 4000044 <_stack_end+0x3efc588>
     324:	000106b7          	lui	a3,0x10
     328:	04080813          	addi	a6,a6,64 # 4000040 <_stack_end+0x3efc584>
     32c:	00072783          	lw	a5,0(a4)
     330:	fed7eee3          	bltu	a5,a3,32c <handle_exception+0x34>
     334:	00b82023          	sw	a1,0(a6)
     338:	00164583          	lbu	a1,1(a2)
     33c:	00160613          	addi	a2,a2,1
     340:	fe0596e3          	bnez	a1,32c <handle_exception+0x34>
     344:	04000737          	lui	a4,0x4000
     348:	04000837          	lui	a6,0x4000
     34c:	00002637          	lui	a2,0x2
     350:	2bc60613          	addi	a2,a2,700 # 22bc <digit27seg+0x9c>
     354:	04500593          	li	a1,69
     358:	04470713          	addi	a4,a4,68 # 4000044 <_stack_end+0x3efc588>
     35c:	000106b7          	lui	a3,0x10
     360:	04080813          	addi	a6,a6,64 # 4000040 <_stack_end+0x3efc584>
     364:	00072783          	lw	a5,0(a4)
     368:	fed7eee3          	bltu	a5,a3,364 <handle_exception+0x6c>
     36c:	00b82023          	sw	a1,0(a6)
     370:	00164583          	lbu	a1,1(a2)
     374:	00160613          	addi	a2,a2,1
     378:	fe0596e3          	bnez	a1,364 <handle_exception+0x6c>
     37c:	04000737          	lui	a4,0x4000
     380:	04470713          	addi	a4,a4,68 # 4000044 <_stack_end+0x3efc588>
     384:	000106b7          	lui	a3,0x10
     388:	00072783          	lw	a5,0(a4)
     38c:	fed7eee3          	bltu	a5,a3,388 <handle_exception+0x90>
     390:	03000693          	li	a3,48
     394:	040007b7          	lui	a5,0x4000
     398:	04000737          	lui	a4,0x4000
     39c:	04d7a023          	sw	a3,64(a5) # 4000040 <_stack_end+0x3efc584>
     3a0:	04470713          	addi	a4,a4,68 # 4000044 <_stack_end+0x3efc588>
     3a4:	000106b7          	lui	a3,0x10
     3a8:	00072783          	lw	a5,0(a4)
     3ac:	fed7eee3          	bltu	a5,a3,3a8 <handle_exception+0xb0>
     3b0:	04000837          	lui	a6,0x4000
     3b4:	04080813          	addi	a6,a6,64 # 4000040 <_stack_end+0x3efc584>
     3b8:	04000737          	lui	a4,0x4000
     3bc:	07800793          	li	a5,120
     3c0:	00f82023          	sw	a5,0(a6)
     3c4:	01c00613          	li	a2,28
     3c8:	00900313          	li	t1,9
     3cc:	04470713          	addi	a4,a4,68 # 4000044 <_stack_end+0x3efc588>
     3d0:	000106b7          	lui	a3,0x10
     3d4:	ffc00893          	li	a7,-4
     3d8:	00c557b3          	srl	a5,a0,a2
     3dc:	00f7f793          	andi	a5,a5,15
     3e0:	03778593          	addi	a1,a5,55
     3e4:	00f36463          	bltu	t1,a5,3ec <handle_exception+0xf4>
     3e8:	03078593          	addi	a1,a5,48
     3ec:	00072783          	lw	a5,0(a4)
     3f0:	fed7eee3          	bltu	a5,a3,3ec <handle_exception+0xf4>
     3f4:	00b82023          	sw	a1,0(a6)
     3f8:	ffc60613          	addi	a2,a2,-4
     3fc:	fd161ee3          	bne	a2,a7,3d8 <handle_exception+0xe0>
     400:	04000737          	lui	a4,0x4000
     404:	04470713          	addi	a4,a4,68 # 4000044 <_stack_end+0x3efc588>
     408:	000106b7          	lui	a3,0x10
     40c:	00072783          	lw	a5,0(a4)
     410:	fed7eee3          	bltu	a5,a3,40c <handle_exception+0x114>
     414:	040007b7          	lui	a5,0x4000
     418:	00a00713          	li	a4,10
     41c:	04e7a023          	sw	a4,64(a5) # 4000040 <_stack_end+0x3efc584>
     420:	0000006f          	j	420 <handle_exception+0x128>
     424:	00400793          	li	a5,4
     428:	0af88063          	beq	a7,a5,4c8 <handle_exception+0x1d0>
     42c:	0d089a63          	bne	a7,a6,500 <handle_exception+0x208>
     430:	04000737          	lui	a4,0x4000
     434:	04470713          	addi	a4,a4,68 # 4000044 <_stack_end+0x3efc588>
     438:	000106b7          	lui	a3,0x10
     43c:	00072783          	lw	a5,0(a4)
     440:	fed7eee3          	bltu	a5,a3,43c <handle_exception+0x144>
     444:	040007b7          	lui	a5,0x4000
     448:	0ff57513          	zext.b	a0,a0
     44c:	04a7a023          	sw	a0,64(a5) # 4000040 <_stack_end+0x3efc584>
     450:	00008067          	ret
     454:	04000837          	lui	a6,0x4000
     458:	00002637          	lui	a2,0x2
     45c:	29c60613          	addi	a2,a2,668 # 229c <digit27seg+0x7c>
     460:	00a00593          	li	a1,10
     464:	04470713          	addi	a4,a4,68
     468:	000106b7          	lui	a3,0x10
     46c:	04080813          	addi	a6,a6,64 # 4000040 <_stack_end+0x3efc584>
     470:	00072783          	lw	a5,0(a4)
     474:	fed7eee3          	bltu	a5,a3,470 <handle_exception+0x178>
     478:	00b82023          	sw	a1,0(a6)
     47c:	00164583          	lbu	a1,1(a2)
     480:	00160613          	addi	a2,a2,1
     484:	fe0596e3          	bnez	a1,470 <handle_exception+0x178>
     488:	ebdff06f          	j	344 <handle_exception+0x4c>
     48c:	04000737          	lui	a4,0x4000
     490:	04000837          	lui	a6,0x4000
     494:	00002637          	lui	a2,0x2
     498:	27460613          	addi	a2,a2,628 # 2274 <digit27seg+0x54>
     49c:	00a00593          	li	a1,10
     4a0:	04470713          	addi	a4,a4,68 # 4000044 <_stack_end+0x3efc588>
     4a4:	000106b7          	lui	a3,0x10
     4a8:	04080813          	addi	a6,a6,64 # 4000040 <_stack_end+0x3efc584>
     4ac:	00072783          	lw	a5,0(a4)
     4b0:	fed7eee3          	bltu	a5,a3,4ac <handle_exception+0x1b4>
     4b4:	00b82023          	sw	a1,0(a6)
     4b8:	00164583          	lbu	a1,1(a2)
     4bc:	00160613          	addi	a2,a2,1
     4c0:	fe0596e3          	bnez	a1,4ac <handle_exception+0x1b4>
     4c4:	e81ff06f          	j	344 <handle_exception+0x4c>
     4c8:	00054603          	lbu	a2,0(a0)
     4cc:	02060a63          	beqz	a2,500 <handle_exception+0x208>
     4d0:	04000737          	lui	a4,0x4000
     4d4:	040005b7          	lui	a1,0x4000
     4d8:	04470713          	addi	a4,a4,68 # 4000044 <_stack_end+0x3efc588>
     4dc:	000106b7          	lui	a3,0x10
     4e0:	04058593          	addi	a1,a1,64 # 4000040 <_stack_end+0x3efc584>
     4e4:	00072783          	lw	a5,0(a4)
     4e8:	fed7eee3          	bltu	a5,a3,4e4 <handle_exception+0x1ec>
     4ec:	00c5a023          	sw	a2,0(a1)
     4f0:	00154603          	lbu	a2,1(a0)
     4f4:	00150513          	addi	a0,a0,1
     4f8:	fe0616e3          	bnez	a2,4e4 <handle_exception+0x1ec>
     4fc:	00008067          	ret
     500:	00008067          	ret

00000504 <nextprime>:
     504:	00200713          	li	a4,2
     508:	00050793          	mv	a5,a0
     50c:	02a74063          	blt	a4,a0,52c <nextprime+0x28>
     510:	00100513          	li	a0,1
     514:	00f05a63          	blez	a5,528 <nextprime+0x24>
     518:	fff78793          	addi	a5,a5,-1
     51c:	00f037b3          	snez	a5,a5
     520:	00278513          	addi	a0,a5,2
     524:	00008067          	ret
     528:	00008067          	ret
     52c:	00150793          	addi	a5,a0,1
     530:	0017e513          	ori	a0,a5,1
     534:	00300613          	li	a2,3
     538:	02c567b3          	rem	a5,a0,a2
     53c:	40155693          	srai	a3,a0,0x1
     540:	02078263          	beqz	a5,564 <nextprime+0x60>
     544:	00268693          	addi	a3,a3,2 # 10002 <__global_pointer+0xd655>
     548:	00300793          	li	a5,3
     54c:	00c0006f          	j	558 <nextprime+0x54>
     550:	02f56733          	rem	a4,a0,a5
     554:	00070863          	beqz	a4,564 <nextprime+0x60>
     558:	00178793          	addi	a5,a5,1
     55c:	fef69ae3          	bne	a3,a5,550 <nextprime+0x4c>
     560:	00008067          	ret
     564:	00250513          	addi	a0,a0,2
     568:	fd1ff06f          	j	538 <nextprime+0x34>

0000056c <generate_pattern>:
     56c:	000026b7          	lui	a3,0x2
     570:	1b06a783          	lw	a5,432(a3) # 21b0 <pattern_state>
     574:	41c65737          	lui	a4,0x41c65
     578:	e6d70713          	addi	a4,a4,-403 # 41c64e6d <_stack_end+0x41b613b1>
     57c:	02e787b3          	mul	a5,a5,a4
     580:	00003737          	lui	a4,0x3
     584:	03970713          	addi	a4,a4,57 # 3039 <__global_pointer+0x68c>
     588:	00e787b3          	add	a5,a5,a4
     58c:	0107d513          	srli	a0,a5,0x10
     590:	1af6a823          	sw	a5,432(a3)
     594:	3ff57513          	andi	a0,a0,1023
     598:	00008067          	ret

0000059c <set_leds>:
     59c:	3ff57513          	andi	a0,a0,1023
     5a0:	040007b7          	lui	a5,0x4000
     5a4:	00a7a023          	sw	a0,0(a5) # 4000000 <_stack_end+0x3efc544>
     5a8:	00008067          	ret

000005ac <reset_leds>:
     5ac:	040007b7          	lui	a5,0x4000
     5b0:	0007a023          	sw	zero,0(a5) # 4000000 <_stack_end+0x3efc544>
     5b4:	00008067          	ret

000005b8 <set_displays>:
     5b8:	00500793          	li	a5,5
     5bc:	02a7e863          	bltu	a5,a0,5ec <set_displays+0x34>
     5c0:	00900793          	li	a5,9
     5c4:	02b7e463          	bltu	a5,a1,5ec <set_displays+0x34>
     5c8:	000027b7          	lui	a5,0x2
     5cc:	22078793          	addi	a5,a5,544 # 2220 <digit27seg>
     5d0:	00400737          	lui	a4,0x400
     5d4:	00b787b3          	add	a5,a5,a1
     5d8:	0007c783          	lbu	a5,0(a5)
     5dc:	00570713          	addi	a4,a4,5 # 400005 <_stack_end+0x2fc549>
     5e0:	00e50533          	add	a0,a0,a4
     5e4:	00451513          	slli	a0,a0,0x4
     5e8:	00f50023          	sb	a5,0(a0)
     5ec:	00008067          	ret

000005f0 <get_sw>:
     5f0:	040007b7          	lui	a5,0x4000
     5f4:	0107a503          	lw	a0,16(a5) # 4000010 <_stack_end+0x3efc554>
     5f8:	3ff57513          	andi	a0,a0,1023
     5fc:	00008067          	ret

00000600 <get_btn>:
     600:	040007b7          	lui	a5,0x4000
     604:	0d07a503          	lw	a0,208(a5) # 40000d0 <_stack_end+0x3efc614>
     608:	00157513          	andi	a0,a0,1
     60c:	00008067          	ret

00000610 <display_current_room>:
     610:	fd010113          	addi	sp,sp,-48
     614:	02812423          	sw	s0,40(sp)
     618:	00002437          	lui	s0,0x2
     61c:	1b440413          	addi	s0,s0,436 # 21b4 <player>
     620:	00042703          	lw	a4,0(s0)
     624:	02912223          	sw	s1,36(sp)
     628:	000024b7          	lui	s1,0x2
     62c:	00371793          	slli	a5,a4,0x3
     630:	00e787b3          	add	a5,a5,a4
     634:	04848493          	addi	s1,s1,72 # 2048 <rooms>
     638:	00279793          	slli	a5,a5,0x2
     63c:	00f487b3          	add	a5,s1,a5
     640:	01912223          	sw	s9,4(sp)
     644:	00002537          	lui	a0,0x2
     648:	0007ac83          	lw	s9,0(a5)
     64c:	2d050513          	addi	a0,a0,720 # 22d0 <digit27seg+0xb0>
     650:	02112623          	sw	ra,44(sp)
     654:	03212023          	sw	s2,32(sp)
     658:	01312e23          	sw	s3,28(sp)
     65c:	0047a903          	lw	s2,4(a5)
     660:	0147a983          	lw	s3,20(a5)
     664:	01412c23          	sw	s4,24(sp)
     668:	01512a23          	sw	s5,20(sp)
     66c:	0107aa03          	lw	s4,16(a5)
     670:	00c7aa83          	lw	s5,12(a5)
     674:	01612823          	sw	s6,16(sp)
     678:	01712623          	sw	s7,12(sp)
     67c:	0087ab03          	lw	s6,8(a5)
     680:	01c7ab83          	lw	s7,28(a5)
     684:	01812423          	sw	s8,8(sp)
     688:	0207ac03          	lw	s8,32(a5)
     68c:	b25ff0ef          	jal	1b0 <print>
     690:	000c8513          	mv	a0,s9
     694:	b1dff0ef          	jal	1b0 <print>
     698:	00003537          	lui	a0,0x3
     69c:	01450513          	addi	a0,a0,20 # 3014 <__global_pointer+0x667>
     6a0:	b11ff0ef          	jal	1b0 <print>
     6a4:	00090513          	mv	a0,s2
     6a8:	b09ff0ef          	jal	1b0 <print>
     6ac:	00002937          	lui	s2,0x2
     6b0:	2d890513          	addi	a0,s2,728 # 22d8 <digit27seg+0xb8>
     6b4:	afdff0ef          	jal	1b0 <print>
     6b8:	00042783          	lw	a5,0(s0)
     6bc:	00800713          	li	a4,8
     6c0:	02f76063          	bltu	a4,a5,6e0 <display_current_room+0xd0>
     6c4:	00002737          	lui	a4,0x2
     6c8:	00279793          	slli	a5,a5,0x2
     6cc:	1dc70713          	addi	a4,a4,476 # 21dc <timeoutcount+0x4>
     6d0:	00e787b3          	add	a5,a5,a4
     6d4:	0007a783          	lw	a5,0(a5)
     6d8:	00078067          	jr	a5
     6dc:	22079e63          	bnez	a5,918 <__heap_size+0x118>
     6e0:	00002537          	lui	a0,0x2
     6e4:	48050513          	addi	a0,a0,1152 # 2480 <digit27seg+0x260>
     6e8:	ac9ff0ef          	jal	1b0 <print>
     6ec:	fff00793          	li	a5,-1
     6f0:	00fb0863          	beq	s6,a5,700 <display_current_room+0xf0>
     6f4:	00002537          	lui	a0,0x2
     6f8:	76450513          	addi	a0,a0,1892 # 2764 <digit27seg+0x544>
     6fc:	ab5ff0ef          	jal	1b0 <print>
     700:	fff00793          	li	a5,-1
     704:	00fa8863          	beq	s5,a5,714 <display_current_room+0x104>
     708:	00002537          	lui	a0,0x2
     70c:	76c50513          	addi	a0,a0,1900 # 276c <digit27seg+0x54c>
     710:	aa1ff0ef          	jal	1b0 <print>
     714:	fff00793          	li	a5,-1
     718:	00fa0863          	beq	s4,a5,728 <display_current_room+0x118>
     71c:	00002537          	lui	a0,0x2
     720:	77450513          	addi	a0,a0,1908 # 2774 <digit27seg+0x554>
     724:	a8dff0ef          	jal	1b0 <print>
     728:	fff00793          	li	a5,-1
     72c:	00f98863          	beq	s3,a5,73c <display_current_room+0x12c>
     730:	00002537          	lui	a0,0x2
     734:	77c50513          	addi	a0,a0,1916 # 277c <digit27seg+0x55c>
     738:	a79ff0ef          	jal	1b0 <print>
     73c:	02812403          	lw	s0,40(sp)
     740:	02c12083          	lw	ra,44(sp)
     744:	02412483          	lw	s1,36(sp)
     748:	01c12983          	lw	s3,28(sp)
     74c:	01812a03          	lw	s4,24(sp)
     750:	01412a83          	lw	s5,20(sp)
     754:	01012b03          	lw	s6,16(sp)
     758:	00c12b83          	lw	s7,12(sp)
     75c:	00812c03          	lw	s8,8(sp)
     760:	00412c83          	lw	s9,4(sp)
     764:	2d890513          	addi	a0,s2,728
     768:	02012903          	lw	s2,32(sp)
     76c:	03010113          	addi	sp,sp,48
     770:	a41ff06f          	j	1b0 <print>
     774:	00002537          	lui	a0,0x2
     778:	2dc50513          	addi	a0,a0,732 # 22dc <digit27seg+0xbc>
     77c:	a35ff0ef          	jal	1b0 <print>
     780:	001e8537          	lui	a0,0x1e8
     784:	48050513          	addi	a0,a0,1152 # 1e8480 <_stack_end+0xe49c4>
     788:	7fc010ef          	jal	1f84 <delay>
     78c:	00002537          	lui	a0,0x2
     790:	2fc50513          	addi	a0,a0,764 # 22fc <digit27seg+0xdc>
     794:	a1dff0ef          	jal	1b0 <print>
     798:	001e8537          	lui	a0,0x1e8
     79c:	48050513          	addi	a0,a0,1152 # 1e8480 <_stack_end+0xe49c4>
     7a0:	7e4010ef          	jal	1f84 <delay>
     7a4:	00002537          	lui	a0,0x2
     7a8:	32850513          	addi	a0,a0,808 # 2328 <digit27seg+0x108>
     7ac:	a05ff0ef          	jal	1b0 <print>
     7b0:	001e8537          	lui	a0,0x1e8
     7b4:	48050513          	addi	a0,a0,1152 # 1e8480 <_stack_end+0xe49c4>
     7b8:	7cc010ef          	jal	1f84 <delay>
     7bc:	00002537          	lui	a0,0x2
     7c0:	34850513          	addi	a0,a0,840 # 2348 <digit27seg+0x128>
     7c4:	9edff0ef          	jal	1b0 <print>
     7c8:	001e8537          	lui	a0,0x1e8
     7cc:	48050513          	addi	a0,a0,1152 # 1e8480 <_stack_end+0xe49c4>
     7d0:	7b4010ef          	jal	1f84 <delay>
     7d4:	00002537          	lui	a0,0x2
     7d8:	36850513          	addi	a0,a0,872 # 2368 <digit27seg+0x148>
     7dc:	9d5ff0ef          	jal	1b0 <print>
     7e0:	001e8537          	lui	a0,0x1e8
     7e4:	48050513          	addi	a0,a0,1152 # 1e8480 <_stack_end+0xe49c4>
     7e8:	79c010ef          	jal	1f84 <delay>
     7ec:	00002537          	lui	a0,0x2
     7f0:	38450513          	addi	a0,a0,900 # 2384 <digit27seg+0x164>
     7f4:	000f4437          	lui	s0,0xf4
     7f8:	9b9ff0ef          	jal	1b0 <print>
     7fc:	24040413          	addi	s0,s0,576 # f4240 <__global_pointer+0xf1893>
     800:	00040513          	mv	a0,s0
     804:	780010ef          	jal	1f84 <delay>
     808:	ff9ff06f          	j	800 <__heap_size>
     80c:	01442783          	lw	a5,20(s0)
     810:	16079063          	bnez	a5,970 <__heap_size+0x170>
     814:	00002537          	lui	a0,0x2
     818:	4b850513          	addi	a0,a0,1208 # 24b8 <digit27seg+0x298>
     81c:	995ff0ef          	jal	1b0 <print>
     820:	00989537          	lui	a0,0x989
     824:	68050513          	addi	a0,a0,1664 # 989680 <_stack_end+0x885bc4>
     828:	75c010ef          	jal	1f84 <delay>
     82c:	00002537          	lui	a0,0x2
     830:	4e050513          	addi	a0,a0,1248 # 24e0 <digit27seg+0x2c0>
     834:	97dff0ef          	jal	1b0 <print>
     838:	00989537          	lui	a0,0x989
     83c:	68050513          	addi	a0,a0,1664 # 989680 <_stack_end+0x885bc4>
     840:	744010ef          	jal	1f84 <delay>
     844:	00002537          	lui	a0,0x2
     848:	51050513          	addi	a0,a0,1296 # 2510 <digit27seg+0x2f0>
     84c:	965ff0ef          	jal	1b0 <print>
     850:	00042703          	lw	a4,0(s0)
     854:	00800793          	li	a5,8
     858:	e8f714e3          	bne	a4,a5,6e0 <display_current_room+0xd0>
     85c:	02c12083          	lw	ra,44(sp)
     860:	02812403          	lw	s0,40(sp)
     864:	02412483          	lw	s1,36(sp)
     868:	02012903          	lw	s2,32(sp)
     86c:	01c12983          	lw	s3,28(sp)
     870:	01812a03          	lw	s4,24(sp)
     874:	01412a83          	lw	s5,20(sp)
     878:	01012b03          	lw	s6,16(sp)
     87c:	00c12b83          	lw	s7,12(sp)
     880:	00812c03          	lw	s8,8(sp)
     884:	00412c83          	lw	s9,4(sp)
     888:	03010113          	addi	sp,sp,48
     88c:	00008067          	ret
     890:	0684a783          	lw	a5,104(s1)
     894:	12079263          	bnez	a5,9b8 <__heap_size+0x1b8>
     898:	00002537          	lui	a0,0x2
     89c:	5bc50513          	addi	a0,a0,1468 # 25bc <digit27seg+0x39c>
     8a0:	911ff0ef          	jal	1b0 <print>
     8a4:	00989537          	lui	a0,0x989
     8a8:	68050513          	addi	a0,a0,1664 # 989680 <_stack_end+0x885bc4>
     8ac:	6d8010ef          	jal	1f84 <delay>
     8b0:	00002537          	lui	a0,0x2
     8b4:	5f050513          	addi	a0,a0,1520 # 25f0 <digit27seg+0x3d0>
     8b8:	8f9ff0ef          	jal	1b0 <print>
     8bc:	00042703          	lw	a4,0(s0)
     8c0:	f95ff06f          	j	854 <__heap_size+0x54>
     8c4:	0a0b8263          	beqz	s7,968 <__heap_size+0x168>
     8c8:	120c0663          	beqz	s8,9f4 <__heap_size+0x1f4>
     8cc:	00002537          	lui	a0,0x2
     8d0:	49050513          	addi	a0,a0,1168 # 2490 <digit27seg+0x270>
     8d4:	8ddff0ef          	jal	1b0 <print>
     8d8:	00042703          	lw	a4,0(s0)
     8dc:	f79ff06f          	j	854 <__heap_size+0x54>
     8e0:	00842783          	lw	a5,8(s0)
     8e4:	0e079463          	bnez	a5,9cc <__heap_size+0x1cc>
     8e8:	00002537          	lui	a0,0x2
     8ec:	39c50513          	addi	a0,a0,924 # 239c <digit27seg+0x17c>
     8f0:	8c1ff0ef          	jal	1b0 <print>
     8f4:	00002537          	lui	a0,0x2
     8f8:	3dc50513          	addi	a0,a0,988 # 23dc <digit27seg+0x1bc>
     8fc:	8b5ff0ef          	jal	1b0 <print>
     900:	00042703          	lw	a4,0(s0)
     904:	f51ff06f          	j	854 <__heap_size+0x54>
     908:	01042703          	lw	a4,16(s0)
     90c:	0f84a783          	lw	a5,248(s1)
     910:	dc0706e3          	beqz	a4,6dc <display_current_room+0xcc>
     914:	10078663          	beqz	a5,a20 <__heap_size+0x220>
     918:	00002537          	lui	a0,0x2
     91c:	6cc50513          	addi	a0,a0,1740 # 26cc <digit27seg+0x4ac>
     920:	891ff0ef          	jal	1b0 <print>
     924:	00042703          	lw	a4,0(s0)
     928:	f2dff06f          	j	854 <__heap_size+0x54>
     92c:	01042783          	lw	a5,16(s0)
     930:	0a079863          	bnez	a5,9e0 <__heap_size+0x1e0>
     934:	00002537          	lui	a0,0x2
     938:	65050513          	addi	a0,a0,1616 # 2650 <digit27seg+0x430>
     93c:	875ff0ef          	jal	1b0 <print>
     940:	00042703          	lw	a4,0(s0)
     944:	f11ff06f          	j	854 <__heap_size+0x54>
     948:	00002537          	lui	a0,0x2
     94c:	6f450513          	addi	a0,a0,1780 # 26f4 <digit27seg+0x4d4>
     950:	861ff0ef          	jal	1b0 <print>
     954:	00002537          	lui	a0,0x2
     958:	73050513          	addi	a0,a0,1840 # 2730 <digit27seg+0x510>
     95c:	855ff0ef          	jal	1b0 <print>
     960:	00042703          	lw	a4,0(s0)
     964:	ef1ff06f          	j	854 <__heap_size+0x54>
     968:	d60c0ce3          	beqz	s8,6e0 <display_current_room+0xd0>
     96c:	f61ff06f          	j	8cc <__heap_size+0xcc>
     970:	00002537          	lui	a0,0x2
     974:	55450513          	addi	a0,a0,1364 # 2554 <digit27seg+0x334>
     978:	839ff0ef          	jal	1b0 <print>
     97c:	00002537          	lui	a0,0x2
     980:	57450513          	addi	a0,a0,1396 # 2574 <digit27seg+0x354>
     984:	82dff0ef          	jal	1b0 <print>
     988:	01842783          	lw	a5,24(s0)
     98c:	00100713          	li	a4,1
     990:	0ae78263          	beq	a5,a4,a34 <__heap_size+0x234>
     994:	00200713          	li	a4,2
     998:	0ae78863          	beq	a5,a4,a48 <__heap_size+0x248>
     99c:	00300713          	li	a4,3
     9a0:	fce790e3          	bne	a5,a4,960 <__heap_size+0x160>
     9a4:	00002537          	lui	a0,0x2
     9a8:	5ac50513          	addi	a0,a0,1452 # 25ac <digit27seg+0x38c>
     9ac:	805ff0ef          	jal	1b0 <print>
     9b0:	00042703          	lw	a4,0(s0)
     9b4:	ea1ff06f          	j	854 <__heap_size+0x54>
     9b8:	00002537          	lui	a0,0x2
     9bc:	62050513          	addi	a0,a0,1568 # 2620 <digit27seg+0x400>
     9c0:	ff0ff0ef          	jal	1b0 <print>
     9c4:	00042703          	lw	a4,0(s0)
     9c8:	e8dff06f          	j	854 <__heap_size+0x54>
     9cc:	00002537          	lui	a0,0x2
     9d0:	40850513          	addi	a0,a0,1032 # 2408 <digit27seg+0x1e8>
     9d4:	fdcff0ef          	jal	1b0 <print>
     9d8:	00042703          	lw	a4,0(s0)
     9dc:	e79ff06f          	j	854 <__heap_size+0x54>
     9e0:	00002537          	lui	a0,0x2
     9e4:	67c50513          	addi	a0,a0,1660 # 267c <digit27seg+0x45c>
     9e8:	fc8ff0ef          	jal	1b0 <print>
     9ec:	00042703          	lw	a4,0(s0)
     9f0:	e65ff06f          	j	854 <__heap_size+0x54>
     9f4:	00002537          	lui	a0,0x2
     9f8:	43450513          	addi	a0,a0,1076 # 2434 <digit27seg+0x214>
     9fc:	fb4ff0ef          	jal	1b0 <print>
     a00:	001e8537          	lui	a0,0x1e8
     a04:	48050513          	addi	a0,a0,1152 # 1e8480 <_stack_end+0xe49c4>
     a08:	57c010ef          	jal	1f84 <delay>
     a0c:	00002537          	lui	a0,0x2
     a10:	46050513          	addi	a0,a0,1120 # 2460 <digit27seg+0x240>
     a14:	f9cff0ef          	jal	1b0 <print>
     a18:	00042703          	lw	a4,0(s0)
     a1c:	e39ff06f          	j	854 <__heap_size+0x54>
     a20:	00002537          	lui	a0,0x2
     a24:	6a450513          	addi	a0,a0,1700 # 26a4 <digit27seg+0x484>
     a28:	f88ff0ef          	jal	1b0 <print>
     a2c:	00042703          	lw	a4,0(s0)
     a30:	e25ff06f          	j	854 <__heap_size+0x54>
     a34:	00002537          	lui	a0,0x2
     a38:	58c50513          	addi	a0,a0,1420 # 258c <digit27seg+0x36c>
     a3c:	f74ff0ef          	jal	1b0 <print>
     a40:	00042703          	lw	a4,0(s0)
     a44:	e11ff06f          	j	854 <__heap_size+0x54>
     a48:	00002537          	lui	a0,0x2
     a4c:	59c50513          	addi	a0,a0,1436 # 259c <digit27seg+0x37c>
     a50:	f60ff0ef          	jal	1b0 <print>
     a54:	00042703          	lw	a4,0(s0)
     a58:	dfdff06f          	j	854 <__heap_size+0x54>

00000a5c <go_north>:
     a5c:	000026b7          	lui	a3,0x2
     a60:	1b468693          	addi	a3,a3,436 # 21b4 <player>
     a64:	0006a783          	lw	a5,0(a3)
     a68:	00379713          	slli	a4,a5,0x3
     a6c:	00f70733          	add	a4,a4,a5
     a70:	000027b7          	lui	a5,0x2
     a74:	00271713          	slli	a4,a4,0x2
     a78:	04878793          	addi	a5,a5,72 # 2048 <rooms>
     a7c:	00e787b3          	add	a5,a5,a4
     a80:	0087a783          	lw	a5,8(a5)
     a84:	fff00713          	li	a4,-1
     a88:	02e78463          	beq	a5,a4,ab0 <go_north+0x54>
     a8c:	ff010113          	addi	sp,sp,-16
     a90:	00002537          	lui	a0,0x2
     a94:	00112623          	sw	ra,12(sp)
     a98:	7a450513          	addi	a0,a0,1956 # 27a4 <digit27seg+0x584>
     a9c:	00f6a023          	sw	a5,0(a3)
     aa0:	f10ff0ef          	jal	1b0 <print>
     aa4:	00c12083          	lw	ra,12(sp)
     aa8:	01010113          	addi	sp,sp,16
     aac:	b65ff06f          	j	610 <display_current_room>
     ab0:	00002537          	lui	a0,0x2
     ab4:	78450513          	addi	a0,a0,1924 # 2784 <digit27seg+0x564>
     ab8:	ef8ff06f          	j	1b0 <print>

00000abc <go_south>:
     abc:	000026b7          	lui	a3,0x2
     ac0:	1b468693          	addi	a3,a3,436 # 21b4 <player>
     ac4:	0006a603          	lw	a2,0(a3)
     ac8:	00002737          	lui	a4,0x2
     acc:	04870713          	addi	a4,a4,72 # 2048 <rooms>
     ad0:	00361793          	slli	a5,a2,0x3
     ad4:	00c787b3          	add	a5,a5,a2
     ad8:	00279793          	slli	a5,a5,0x2
     adc:	00f707b3          	add	a5,a4,a5
     ae0:	00c7a783          	lw	a5,12(a5)
     ae4:	fff00613          	li	a2,-1
     ae8:	08c78863          	beq	a5,a2,b78 <go_south+0xbc>
     aec:	00600613          	li	a2,6
     af0:	06c78a63          	beq	a5,a2,b64 <go_south+0xa8>
     af4:	00700613          	li	a2,7
     af8:	04c79863          	bne	a5,a2,b48 <go_south+0x8c>
     afc:	0086a603          	lw	a2,8(a3)
     b00:	08060263          	beqz	a2,b84 <go_south+0xc8>
     b04:	00379613          	slli	a2,a5,0x3
     b08:	00f60633          	add	a2,a2,a5
     b0c:	00261613          	slli	a2,a2,0x2
     b10:	00c70733          	add	a4,a4,a2
     b14:	01872703          	lw	a4,24(a4)
     b18:	00070663          	beqz	a4,b24 <go_south+0x68>
     b1c:	0046a703          	lw	a4,4(a3)
     b20:	06070863          	beqz	a4,b90 <go_south+0xd4>
     b24:	ff010113          	addi	sp,sp,-16
     b28:	00003537          	lui	a0,0x3
     b2c:	00112623          	sw	ra,12(sp)
     b30:	8e450513          	addi	a0,a0,-1820 # 28e4 <digit27seg+0x6c4>
     b34:	00f6a023          	sw	a5,0(a3)
     b38:	e78ff0ef          	jal	1b0 <print>
     b3c:	00c12083          	lw	ra,12(sp)
     b40:	01010113          	addi	sp,sp,16
     b44:	acdff06f          	j	610 <display_current_room>
     b48:	00800613          	li	a2,8
     b4c:	fac79ce3          	bne	a5,a2,b04 <go_south+0x48>
     b50:	01c6a603          	lw	a2,28(a3)
     b54:	fa0618e3          	bnez	a2,b04 <go_south+0x48>
     b58:	00003537          	lui	a0,0x3
     b5c:	85850513          	addi	a0,a0,-1960 # 2858 <digit27seg+0x638>
     b60:	e50ff06f          	j	1b0 <print>
     b64:	0106a603          	lw	a2,16(a3)
     b68:	f8061ee3          	bnez	a2,b04 <go_south+0x48>
     b6c:	00002537          	lui	a0,0x2
     b70:	7d450513          	addi	a0,a0,2004 # 27d4 <digit27seg+0x5b4>
     b74:	e3cff06f          	j	1b0 <print>
     b78:	00002537          	lui	a0,0x2
     b7c:	7b450513          	addi	a0,a0,1972 # 27b4 <digit27seg+0x594>
     b80:	e30ff06f          	j	1b0 <print>
     b84:	00003537          	lui	a0,0x3
     b88:	81850513          	addi	a0,a0,-2024 # 2818 <digit27seg+0x5f8>
     b8c:	e24ff06f          	j	1b0 <print>
     b90:	00003537          	lui	a0,0x3
     b94:	8a850513          	addi	a0,a0,-1880 # 28a8 <digit27seg+0x688>
     b98:	e18ff06f          	j	1b0 <print>

00000b9c <go_east>:
     b9c:	000026b7          	lui	a3,0x2
     ba0:	1b468693          	addi	a3,a3,436 # 21b4 <player>
     ba4:	0006a603          	lw	a2,0(a3)
     ba8:	00002737          	lui	a4,0x2
     bac:	04870713          	addi	a4,a4,72 # 2048 <rooms>
     bb0:	00361793          	slli	a5,a2,0x3
     bb4:	00c787b3          	add	a5,a5,a2
     bb8:	00279793          	slli	a5,a5,0x2
     bbc:	00f707b3          	add	a5,a4,a5
     bc0:	0107a603          	lw	a2,16(a5)
     bc4:	fff00793          	li	a5,-1
     bc8:	04f60463          	beq	a2,a5,c10 <go_east+0x74>
     bcc:	00361793          	slli	a5,a2,0x3
     bd0:	00c787b3          	add	a5,a5,a2
     bd4:	00279793          	slli	a5,a5,0x2
     bd8:	00f70733          	add	a4,a4,a5
     bdc:	01872783          	lw	a5,24(a4)
     be0:	00078663          	beqz	a5,bec <go_east+0x50>
     be4:	00c6a783          	lw	a5,12(a3)
     be8:	02078a63          	beqz	a5,c1c <go_east+0x80>
     bec:	ff010113          	addi	sp,sp,-16
     bf0:	00003537          	lui	a0,0x3
     bf4:	00112623          	sw	ra,12(sp)
     bf8:	95450513          	addi	a0,a0,-1708 # 2954 <digit27seg+0x734>
     bfc:	00c6a023          	sw	a2,0(a3)
     c00:	db0ff0ef          	jal	1b0 <print>
     c04:	00c12083          	lw	ra,12(sp)
     c08:	01010113          	addi	sp,sp,16
     c0c:	a05ff06f          	j	610 <display_current_room>
     c10:	00003537          	lui	a0,0x3
     c14:	8f450513          	addi	a0,a0,-1804 # 28f4 <digit27seg+0x6d4>
     c18:	d98ff06f          	j	1b0 <print>
     c1c:	00003537          	lui	a0,0x3
     c20:	91450513          	addi	a0,a0,-1772 # 2914 <digit27seg+0x6f4>
     c24:	d8cff06f          	j	1b0 <print>

00000c28 <go_west>:
     c28:	000026b7          	lui	a3,0x2
     c2c:	1b468693          	addi	a3,a3,436 # 21b4 <player>
     c30:	0006a783          	lw	a5,0(a3)
     c34:	00379713          	slli	a4,a5,0x3
     c38:	00f70733          	add	a4,a4,a5
     c3c:	000027b7          	lui	a5,0x2
     c40:	00271713          	slli	a4,a4,0x2
     c44:	04878793          	addi	a5,a5,72 # 2048 <rooms>
     c48:	00e787b3          	add	a5,a5,a4
     c4c:	0147a783          	lw	a5,20(a5)
     c50:	fff00713          	li	a4,-1
     c54:	02e78463          	beq	a5,a4,c7c <go_west+0x54>
     c58:	ff010113          	addi	sp,sp,-16
     c5c:	00003537          	lui	a0,0x3
     c60:	00112623          	sw	ra,12(sp)
     c64:	98450513          	addi	a0,a0,-1660 # 2984 <digit27seg+0x764>
     c68:	00f6a023          	sw	a5,0(a3)
     c6c:	d44ff0ef          	jal	1b0 <print>
     c70:	00c12083          	lw	ra,12(sp)
     c74:	01010113          	addi	sp,sp,16
     c78:	999ff06f          	j	610 <display_current_room>
     c7c:	00003537          	lui	a0,0x3
     c80:	96450513          	addi	a0,a0,-1692 # 2964 <digit27seg+0x744>
     c84:	d2cff06f          	j	1b0 <print>

00000c88 <labinit>:
     c88:	00002737          	lui	a4,0x2
     c8c:	1c072c23          	sw	zero,472(a4) # 21d8 <timeoutcount>
     c90:	040007b7          	lui	a5,0x4000
     c94:	0207a223          	sw	zero,36(a5) # 4000024 <_stack_end+0x3efc568>
     c98:	040006b7          	lui	a3,0x4000
     c9c:	000075b7          	lui	a1,0x7
     ca0:	0206a023          	sw	zero,32(a3) # 4000020 <_stack_end+0x3efc564>
     ca4:	04000637          	lui	a2,0x4000
     ca8:	53058593          	addi	a1,a1,1328 # 7530 <__global_pointer+0x4b83>
     cac:	04000737          	lui	a4,0x4000
     cb0:	02b62423          	sw	a1,40(a2) # 4000028 <_stack_end+0x3efc56c>
     cb4:	02072623          	sw	zero,44(a4) # 400002c <_stack_end+0x3efc570>
     cb8:	00700713          	li	a4,7
     cbc:	02e7a223          	sw	a4,36(a5)
     cc0:	cb4ff06f          	j	174 <enable_interrupt>

00000cc4 <handle_interrupt>:
     cc4:	040007b7          	lui	a5,0x4000
     cc8:	0207a703          	lw	a4,32(a5) # 4000020 <_stack_end+0x3efc564>
     ccc:	02078793          	addi	a5,a5,32
     cd0:	00177713          	andi	a4,a4,1
     cd4:	00070c63          	beqz	a4,cec <handle_interrupt+0x28>
     cd8:	0007a023          	sw	zero,0(a5)
     cdc:	00002737          	lui	a4,0x2
     ce0:	1d872783          	lw	a5,472(a4) # 21d8 <timeoutcount>
     ce4:	00178793          	addi	a5,a5,1
     ce8:	1cf72c23          	sw	a5,472(a4)
     cec:	00008067          	ret

00000cf0 <reaction_challenge>:
     cf0:	00003537          	lui	a0,0x3
     cf4:	ff010113          	addi	sp,sp,-16
     cf8:	99450513          	addi	a0,a0,-1644 # 2994 <digit27seg+0x774>
     cfc:	00112623          	sw	ra,12(sp)
     d00:	00812423          	sw	s0,8(sp)
     d04:	00912223          	sw	s1,4(sp)
     d08:	01212023          	sw	s2,0(sp)
     d0c:	ca4ff0ef          	jal	1b0 <print>
     d10:	00989537          	lui	a0,0x989
     d14:	68050513          	addi	a0,a0,1664 # 989680 <_stack_end+0x885bc4>
     d18:	26c010ef          	jal	1f84 <delay>
     d1c:	00003537          	lui	a0,0x3
     d20:	9d050513          	addi	a0,a0,-1584 # 29d0 <__global_pointer+0x23>
     d24:	04000437          	lui	s0,0x4000
     d28:	c88ff0ef          	jal	1b0 <print>
     d2c:	0d042783          	lw	a5,208(s0) # 40000d0 <_stack_end+0x3efc614>
     d30:	0d040413          	addi	s0,s0,208
     d34:	0017f793          	andi	a5,a5,1
     d38:	00079c63          	bnez	a5,d50 <reaction_challenge+0x60>
     d3c:	3e800513          	li	a0,1000
     d40:	244010ef          	jal	1f84 <delay>
     d44:	00042783          	lw	a5,0(s0)
     d48:	0017f793          	andi	a5,a5,1
     d4c:	fe0788e3          	beqz	a5,d3c <reaction_challenge+0x4c>
     d50:	04000437          	lui	s0,0x4000
     d54:	0d042783          	lw	a5,208(s0) # 40000d0 <_stack_end+0x3efc614>
     d58:	0d040413          	addi	s0,s0,208
     d5c:	0017f793          	andi	a5,a5,1
     d60:	00078c63          	beqz	a5,d78 <reaction_challenge+0x88>
     d64:	3e800513          	li	a0,1000
     d68:	21c010ef          	jal	1f84 <delay>
     d6c:	00042783          	lw	a5,0(s0)
     d70:	0017f793          	andi	a5,a5,1
     d74:	fe0798e3          	bnez	a5,d64 <reaction_challenge+0x74>
     d78:	00018537          	lui	a0,0x18
     d7c:	6a050513          	addi	a0,a0,1696 # 186a0 <__global_pointer+0x15cf3>
     d80:	204010ef          	jal	1f84 <delay>
     d84:	00003537          	lui	a0,0x3
     d88:	a1050513          	addi	a0,a0,-1520 # 2a10 <__global_pointer+0x63>
     d8c:	c24ff0ef          	jal	1b0 <print>
     d90:	004c5537          	lui	a0,0x4c5
     d94:	b4050513          	addi	a0,a0,-1216 # 4c4b40 <_stack_end+0x3c1084>
     d98:	1ec010ef          	jal	1f84 <delay>
     d9c:	00003537          	lui	a0,0x3
     da0:	a3450513          	addi	a0,a0,-1484 # 2a34 <__global_pointer+0x87>
     da4:	c0cff0ef          	jal	1b0 <print>
     da8:	004c5537          	lui	a0,0x4c5
     dac:	b4050513          	addi	a0,a0,-1216 # 4c4b40 <_stack_end+0x3c1084>
     db0:	1d4010ef          	jal	1f84 <delay>
     db4:	00003537          	lui	a0,0x3
     db8:	a5450513          	addi	a0,a0,-1452 # 2a54 <__global_pointer+0xa7>
     dbc:	bf4ff0ef          	jal	1b0 <print>
     dc0:	004c5537          	lui	a0,0x4c5
     dc4:	b4050513          	addi	a0,a0,-1216 # 4c4b40 <_stack_end+0x3c1084>
     dc8:	00002437          	lui	s0,0x2
     dcc:	1b8010ef          	jal	1f84 <delay>
     dd0:	1b440413          	addi	s0,s0,436 # 21b4 <player>
     dd4:	01842783          	lw	a5,24(s0)
     dd8:	00100713          	li	a4,1
     ddc:	28e78e63          	beq	a5,a4,1078 <reaction_challenge+0x388>
     de0:	00200713          	li	a4,2
     de4:	2ae78263          	beq	a5,a4,1088 <reaction_challenge+0x398>
     de8:	00300713          	li	a4,3
     dec:	1ee78a63          	beq	a5,a4,fe0 <reaction_challenge+0x2f0>
     df0:	00003537          	lui	a0,0x3
     df4:	b1c50513          	addi	a0,a0,-1252 # 2b1c <__global_pointer+0x16f>
     df8:	bb8ff0ef          	jal	1b0 <print>
     dfc:	004c5537          	lui	a0,0x4c5
     e00:	b4050513          	addi	a0,a0,-1216 # 4c4b40 <_stack_end+0x3c1084>
     e04:	180010ef          	jal	1f84 <delay>
     e08:	00003537          	lui	a0,0x3
     e0c:	b5450513          	addi	a0,a0,-1196 # 2b54 <__global_pointer+0x1a7>
     e10:	ba0ff0ef          	jal	1b0 <print>
     e14:	004c5537          	lui	a0,0x4c5
     e18:	b4050513          	addi	a0,a0,-1216 # 4c4b40 <_stack_end+0x3c1084>
     e1c:	168010ef          	jal	1f84 <delay>
     e20:	00003537          	lui	a0,0x3
     e24:	b8050513          	addi	a0,a0,-1152 # 2b80 <__global_pointer+0x1d3>
     e28:	040004b7          	lui	s1,0x4000
     e2c:	b84ff0ef          	jal	1b0 <print>
     e30:	0d04a783          	lw	a5,208(s1) # 40000d0 <_stack_end+0x3efc614>
     e34:	0d048493          	addi	s1,s1,208
     e38:	0017f793          	andi	a5,a5,1
     e3c:	00079c63          	bnez	a5,e54 <reaction_challenge+0x164>
     e40:	3e800513          	li	a0,1000
     e44:	140010ef          	jal	1f84 <delay>
     e48:	0004a783          	lw	a5,0(s1)
     e4c:	0017f793          	andi	a5,a5,1
     e50:	fe0788e3          	beqz	a5,e40 <reaction_challenge+0x150>
     e54:	040004b7          	lui	s1,0x4000
     e58:	0d04a783          	lw	a5,208(s1) # 40000d0 <_stack_end+0x3efc614>
     e5c:	0d048493          	addi	s1,s1,208
     e60:	0017f793          	andi	a5,a5,1
     e64:	00078c63          	beqz	a5,e7c <reaction_challenge+0x18c>
     e68:	3e800513          	li	a0,1000
     e6c:	118010ef          	jal	1f84 <delay>
     e70:	0004a783          	lw	a5,0(s1)
     e74:	0017f793          	andi	a5,a5,1
     e78:	fe0798e3          	bnez	a5,e68 <reaction_challenge+0x178>
     e7c:	00018537          	lui	a0,0x18
     e80:	6a050513          	addi	a0,a0,1696 # 186a0 <__global_pointer+0x15cf3>
     e84:	100010ef          	jal	1f84 <delay>
     e88:	00003537          	lui	a0,0x3
     e8c:	ba850513          	addi	a0,a0,-1112 # 2ba8 <__global_pointer+0x1fb>
     e90:	040004b7          	lui	s1,0x4000
     e94:	b1cff0ef          	jal	1b0 <print>
     e98:	0d04a783          	lw	a5,208(s1) # 40000d0 <_stack_end+0x3efc614>
     e9c:	0d048493          	addi	s1,s1,208
     ea0:	0017f793          	andi	a5,a5,1
     ea4:	00078c63          	beqz	a5,ebc <reaction_challenge+0x1cc>
     ea8:	3e800513          	li	a0,1000
     eac:	0d8010ef          	jal	1f84 <delay>
     eb0:	0004a783          	lw	a5,0(s1)
     eb4:	0017f793          	andi	a5,a5,1
     eb8:	fe0798e3          	bnez	a5,ea8 <reaction_challenge+0x1b8>
     ebc:	01c9c537          	lui	a0,0x1c9c
     ec0:	38050513          	addi	a0,a0,896 # 1c9c380 <_stack_end+0x1b988c4>
     ec4:	0c0010ef          	jal	1f84 <delay>
     ec8:	00003537          	lui	a0,0x3
     ecc:	be050513          	addi	a0,a0,-1056 # 2be0 <__global_pointer+0x233>
     ed0:	ae0ff0ef          	jal	1b0 <print>
     ed4:	00002937          	lui	s2,0x2
     ed8:	1c092c23          	sw	zero,472(s2) # 21d8 <timeoutcount>
     edc:	040007b7          	lui	a5,0x4000
     ee0:	0207a223          	sw	zero,36(a5) # 4000024 <_stack_end+0x3efc568>
     ee4:	040006b7          	lui	a3,0x4000
     ee8:	000075b7          	lui	a1,0x7
     eec:	0206a023          	sw	zero,32(a3) # 4000020 <_stack_end+0x3efc564>
     ef0:	04000637          	lui	a2,0x4000
     ef4:	53058593          	addi	a1,a1,1328 # 7530 <__global_pointer+0x4b83>
     ef8:	02b62423          	sw	a1,40(a2) # 4000028 <_stack_end+0x3efc56c>
     efc:	04000737          	lui	a4,0x4000
     f00:	02072623          	sw	zero,44(a4) # 400002c <_stack_end+0x3efc570>
     f04:	00700613          	li	a2,7
     f08:	02c7a223          	sw	a2,36(a5)
     f0c:	a68ff0ef          	jal	174 <enable_interrupt>
     f10:	04000737          	lui	a4,0x4000
     f14:	040007b7          	lui	a5,0x4000
     f18:	3ff00693          	li	a3,1023
     f1c:	00d7a023          	sw	a3,0(a5) # 4000000 <_stack_end+0x3efc544>
     f20:	0d070713          	addi	a4,a4,208 # 40000d0 <_stack_end+0x3efc614>
     f24:	00072783          	lw	a5,0(a4)
     f28:	0017f793          	andi	a5,a5,1
     f2c:	fe078ce3          	beqz	a5,f24 <reaction_challenge+0x234>
     f30:	00072783          	lw	a5,0(a4)
     f34:	040004b7          	lui	s1,0x4000
     f38:	1d892903          	lw	s2,472(s2)
     f3c:	0017f793          	andi	a5,a5,1
     f40:	0d048493          	addi	s1,s1,208 # 40000d0 <_stack_end+0x3efc614>
     f44:	00078c63          	beqz	a5,f5c <reaction_challenge+0x26c>
     f48:	3e800513          	li	a0,1000
     f4c:	038010ef          	jal	1f84 <delay>
     f50:	0004a783          	lw	a5,0(s1)
     f54:	0017f793          	andi	a5,a5,1
     f58:	fe0798e3          	bnez	a5,f48 <reaction_challenge+0x258>
     f5c:	040007b7          	lui	a5,0x4000
     f60:	00003537          	lui	a0,0x3
     f64:	0007a023          	sw	zero,0(a5) # 4000000 <_stack_end+0x3efc544>
     f68:	be850513          	addi	a0,a0,-1048 # 2be8 <__global_pointer+0x23b>
     f6c:	a44ff0ef          	jal	1b0 <print>
     f70:	00090513          	mv	a0,s2
     f74:	a74ff0ef          	jal	1e8 <print_dec>
     f78:	00003537          	lui	a0,0x3
     f7c:	bf850513          	addi	a0,a0,-1032 # 2bf8 <__global_pointer+0x24b>
     f80:	a30ff0ef          	jal	1b0 <print>
     f84:	01842783          	lw	a5,24(s0)
     f88:	00100713          	li	a4,1
     f8c:	0ae78263          	beq	a5,a4,1030 <reaction_challenge+0x340>
     f90:	00300713          	li	a4,3
     f94:	0ce78c63          	beq	a5,a4,106c <reaction_challenge+0x37c>
     f98:	0fa00413          	li	s0,250
     f9c:	0fa00713          	li	a4,250
     fa0:	00989537          	lui	a0,0x989
     fa4:	03100793          	li	a5,49
     fa8:	68050513          	addi	a0,a0,1664 # 989680 <_stack_end+0x885bc4>
     fac:	0927de63          	bge	a5,s2,1048 <reaction_challenge+0x358>
     fb0:	04e95063          	bge	s2,a4,ff0 <reaction_challenge+0x300>
     fb4:	7d1000ef          	jal	1f84 <delay>
     fb8:	00003537          	lui	a0,0x3
     fbc:	c6050513          	addi	a0,a0,-928 # 2c60 <__global_pointer+0x2b3>
     fc0:	9f0ff0ef          	jal	1b0 <print>
     fc4:	00c12083          	lw	ra,12(sp)
     fc8:	00812403          	lw	s0,8(sp)
     fcc:	00412483          	lw	s1,4(sp)
     fd0:	00012903          	lw	s2,0(sp)
     fd4:	00100513          	li	a0,1
     fd8:	01010113          	addi	sp,sp,16
     fdc:	00008067          	ret
     fe0:	00003537          	lui	a0,0x3
     fe4:	ae850513          	addi	a0,a0,-1304 # 2ae8 <__global_pointer+0x13b>
     fe8:	9c8ff0ef          	jal	1b0 <print>
     fec:	e11ff06f          	j	dfc <reaction_challenge+0x10c>
     ff0:	795000ef          	jal	1f84 <delay>
     ff4:	00003537          	lui	a0,0x3
     ff8:	c8c50513          	addi	a0,a0,-884 # 2c8c <__global_pointer+0x2df>
     ffc:	9b4ff0ef          	jal	1b0 <print>
    1000:	00040513          	mv	a0,s0
    1004:	9e4ff0ef          	jal	1e8 <print_dec>
    1008:	00003537          	lui	a0,0x3
    100c:	cb850513          	addi	a0,a0,-840 # 2cb8 <__global_pointer+0x30b>
    1010:	9a0ff0ef          	jal	1b0 <print>
    1014:	00000513          	li	a0,0
    1018:	00c12083          	lw	ra,12(sp)
    101c:	00812403          	lw	s0,8(sp)
    1020:	00412483          	lw	s1,4(sp)
    1024:	00012903          	lw	s2,0(sp)
    1028:	01010113          	addi	sp,sp,16
    102c:	00008067          	ret
    1030:	00989537          	lui	a0,0x989
    1034:	03100793          	li	a5,49
    1038:	12c00413          	li	s0,300
    103c:	12c00713          	li	a4,300
    1040:	68050513          	addi	a0,a0,1664 # 989680 <_stack_end+0x885bc4>
    1044:	f727c6e3          	blt	a5,s2,fb0 <reaction_challenge+0x2c0>
    1048:	73d000ef          	jal	1f84 <delay>
    104c:	00003537          	lui	a0,0x3
    1050:	c0050513          	addi	a0,a0,-1024 # 2c00 <__global_pointer+0x253>
    1054:	95cff0ef          	jal	1b0 <print>
    1058:	00003537          	lui	a0,0x3
    105c:	c3c50513          	addi	a0,a0,-964 # 2c3c <__global_pointer+0x28f>
    1060:	950ff0ef          	jal	1b0 <print>
    1064:	00000513          	li	a0,0
    1068:	fb1ff06f          	j	1018 <reaction_challenge+0x328>
    106c:	0af00413          	li	s0,175
    1070:	0af00713          	li	a4,175
    1074:	f2dff06f          	j	fa0 <reaction_challenge+0x2b0>
    1078:	00003537          	lui	a0,0x3
    107c:	a7c50513          	addi	a0,a0,-1412 # 2a7c <__global_pointer+0xcf>
    1080:	930ff0ef          	jal	1b0 <print>
    1084:	d79ff06f          	j	dfc <reaction_challenge+0x10c>
    1088:	00003537          	lui	a0,0x3
    108c:	ab050513          	addi	a0,a0,-1360 # 2ab0 <__global_pointer+0x103>
    1090:	920ff0ef          	jal	1b0 <print>
    1094:	d69ff06f          	j	dfc <reaction_challenge+0x10c>

00001098 <office_memory_challenge>:
    1098:	00003537          	lui	a0,0x3
    109c:	ff010113          	addi	sp,sp,-16
    10a0:	cc050513          	addi	a0,a0,-832 # 2cc0 <__global_pointer+0x313>
    10a4:	00812423          	sw	s0,8(sp)
    10a8:	00112623          	sw	ra,12(sp)
    10ac:	00912223          	sw	s1,4(sp)
    10b0:	04000437          	lui	s0,0x4000
    10b4:	8fcff0ef          	jal	1b0 <print>
    10b8:	0d042783          	lw	a5,208(s0) # 40000d0 <_stack_end+0x3efc614>
    10bc:	0017f793          	andi	a5,a5,1
    10c0:	00079e63          	bnez	a5,10dc <office_memory_challenge+0x44>
    10c4:	0d040413          	addi	s0,s0,208
    10c8:	3e800513          	li	a0,1000
    10cc:	6b9000ef          	jal	1f84 <delay>
    10d0:	00042783          	lw	a5,0(s0)
    10d4:	0017f793          	andi	a5,a5,1
    10d8:	fe0788e3          	beqz	a5,10c8 <office_memory_challenge+0x30>
    10dc:	04000437          	lui	s0,0x4000
    10e0:	0d042783          	lw	a5,208(s0) # 40000d0 <_stack_end+0x3efc614>
    10e4:	0d040413          	addi	s0,s0,208
    10e8:	0017f793          	andi	a5,a5,1
    10ec:	00078c63          	beqz	a5,1104 <office_memory_challenge+0x6c>
    10f0:	3e800513          	li	a0,1000
    10f4:	691000ef          	jal	1f84 <delay>
    10f8:	00042783          	lw	a5,0(s0)
    10fc:	0017f793          	andi	a5,a5,1
    1100:	fe0798e3          	bnez	a5,10f0 <office_memory_challenge+0x58>
    1104:	00018537          	lui	a0,0x18
    1108:	6a050513          	addi	a0,a0,1696 # 186a0 <__global_pointer+0x15cf3>
    110c:	679000ef          	jal	1f84 <delay>
    1110:	00003537          	lui	a0,0x3
    1114:	d0850513          	addi	a0,a0,-760 # 2d08 <__global_pointer+0x35b>
    1118:	898ff0ef          	jal	1b0 <print>
    111c:	00989537          	lui	a0,0x989
    1120:	68050513          	addi	a0,a0,1664 # 989680 <_stack_end+0x885bc4>
    1124:	661000ef          	jal	1f84 <delay>
    1128:	00003537          	lui	a0,0x3
    112c:	d2850513          	addi	a0,a0,-728 # 2d28 <__global_pointer+0x37b>
    1130:	880ff0ef          	jal	1b0 <print>
    1134:	00989537          	lui	a0,0x989
    1138:	68050513          	addi	a0,a0,1664 # 989680 <_stack_end+0x885bc4>
    113c:	649000ef          	jal	1f84 <delay>
    1140:	00003537          	lui	a0,0x3
    1144:	d4c50513          	addi	a0,a0,-692 # 2d4c <__global_pointer+0x39f>
    1148:	868ff0ef          	jal	1b0 <print>
    114c:	00989537          	lui	a0,0x989
    1150:	68050513          	addi	a0,a0,1664 # 989680 <_stack_end+0x885bc4>
    1154:	631000ef          	jal	1f84 <delay>
    1158:	00003537          	lui	a0,0x3
    115c:	d7c50513          	addi	a0,a0,-644 # 2d7c <__global_pointer+0x3cf>
    1160:	850ff0ef          	jal	1b0 <print>
    1164:	00989537          	lui	a0,0x989
    1168:	68050513          	addi	a0,a0,1664 # 989680 <_stack_end+0x885bc4>
    116c:	619000ef          	jal	1f84 <delay>
    1170:	00003537          	lui	a0,0x3
    1174:	b8050513          	addi	a0,a0,-1152 # 2b80 <__global_pointer+0x1d3>
    1178:	04000437          	lui	s0,0x4000
    117c:	834ff0ef          	jal	1b0 <print>
    1180:	0d042783          	lw	a5,208(s0) # 40000d0 <_stack_end+0x3efc614>
    1184:	0d040413          	addi	s0,s0,208
    1188:	0017f793          	andi	a5,a5,1
    118c:	00079c63          	bnez	a5,11a4 <office_memory_challenge+0x10c>
    1190:	3e800513          	li	a0,1000
    1194:	5f1000ef          	jal	1f84 <delay>
    1198:	00042783          	lw	a5,0(s0)
    119c:	0017f793          	andi	a5,a5,1
    11a0:	fe0788e3          	beqz	a5,1190 <office_memory_challenge+0xf8>
    11a4:	04000437          	lui	s0,0x4000
    11a8:	0d042783          	lw	a5,208(s0) # 40000d0 <_stack_end+0x3efc614>
    11ac:	0d040413          	addi	s0,s0,208
    11b0:	0017f793          	andi	a5,a5,1
    11b4:	00078c63          	beqz	a5,11cc <office_memory_challenge+0x134>
    11b8:	3e800513          	li	a0,1000
    11bc:	5c9000ef          	jal	1f84 <delay>
    11c0:	00042783          	lw	a5,0(s0)
    11c4:	0017f793          	andi	a5,a5,1
    11c8:	fe0798e3          	bnez	a5,11b8 <office_memory_challenge+0x120>
    11cc:	00018537          	lui	a0,0x18
    11d0:	6a050513          	addi	a0,a0,1696 # 186a0 <__global_pointer+0x15cf3>
    11d4:	5b1000ef          	jal	1f84 <delay>
    11d8:	000026b7          	lui	a3,0x2
    11dc:	1b06a783          	lw	a5,432(a3) # 21b0 <pattern_state>
    11e0:	41c65737          	lui	a4,0x41c65
    11e4:	e6d70713          	addi	a4,a4,-403 # 41c64e6d <_stack_end+0x41b613b1>
    11e8:	02e787b3          	mul	a5,a5,a4
    11ec:	00003737          	lui	a4,0x3
    11f0:	03970713          	addi	a4,a4,57 # 3039 <__global_pointer+0x68c>
    11f4:	00003537          	lui	a0,0x3
    11f8:	000024b7          	lui	s1,0x2
    11fc:	da050513          	addi	a0,a0,-608 # 2da0 <__global_pointer+0x3f3>
    1200:	04000437          	lui	s0,0x4000
    1204:	0d040413          	addi	s0,s0,208 # 40000d0 <_stack_end+0x3efc614>
    1208:	00e787b3          	add	a5,a5,a4
    120c:	0107d713          	srli	a4,a5,0x10
    1210:	3ff77713          	andi	a4,a4,1023
    1214:	1af6a823          	sw	a5,432(a3)
    1218:	1ce4aa23          	sw	a4,468(s1) # 21d4 <office_pattern>
    121c:	f95fe0ef          	jal	1b0 <print>
    1220:	00003537          	lui	a0,0x3
    1224:	db850513          	addi	a0,a0,-584 # 2db8 <__global_pointer+0x40b>
    1228:	f89fe0ef          	jal	1b0 <print>
    122c:	1d44a783          	lw	a5,468(s1)
    1230:	00989537          	lui	a0,0x989
    1234:	68050513          	addi	a0,a0,1664 # 989680 <_stack_end+0x885bc4>
    1238:	3ff7f793          	andi	a5,a5,1023
    123c:	f2f42823          	sw	a5,-208(s0)
    1240:	545000ef          	jal	1f84 <delay>
    1244:	00989537          	lui	a0,0x989
    1248:	68050513          	addi	a0,a0,1664 # 989680 <_stack_end+0x885bc4>
    124c:	f2042823          	sw	zero,-208(s0)
    1250:	535000ef          	jal	1f84 <delay>
    1254:	00003537          	lui	a0,0x3
    1258:	dd050513          	addi	a0,a0,-560 # 2dd0 <__global_pointer+0x423>
    125c:	f55fe0ef          	jal	1b0 <print>
    1260:	00042783          	lw	a5,0(s0)
    1264:	0017f793          	andi	a5,a5,1
    1268:	00079c63          	bnez	a5,1280 <office_memory_challenge+0x1e8>
    126c:	3e800513          	li	a0,1000
    1270:	515000ef          	jal	1f84 <delay>
    1274:	00042783          	lw	a5,0(s0)
    1278:	0017f793          	andi	a5,a5,1
    127c:	fe0788e3          	beqz	a5,126c <office_memory_challenge+0x1d4>
    1280:	04000437          	lui	s0,0x4000
    1284:	0d042783          	lw	a5,208(s0) # 40000d0 <_stack_end+0x3efc614>
    1288:	0d040413          	addi	s0,s0,208
    128c:	0017f793          	andi	a5,a5,1
    1290:	00078c63          	beqz	a5,12a8 <office_memory_challenge+0x210>
    1294:	3e800513          	li	a0,1000
    1298:	4ed000ef          	jal	1f84 <delay>
    129c:	00042783          	lw	a5,0(s0)
    12a0:	0017f793          	andi	a5,a5,1
    12a4:	fe0798e3          	bnez	a5,1294 <office_memory_challenge+0x1fc>
    12a8:	00018537          	lui	a0,0x18
    12ac:	6a050513          	addi	a0,a0,1696 # 186a0 <__global_pointer+0x15cf3>
    12b0:	4d5000ef          	jal	1f84 <delay>
    12b4:	04000737          	lui	a4,0x4000
    12b8:	01072783          	lw	a5,16(a4) # 4000010 <_stack_end+0x3efc554>
    12bc:	1d44a683          	lw	a3,468(s1)
    12c0:	3ff7f793          	andi	a5,a5,1023
    12c4:	02f68463          	beq	a3,a5,12ec <office_memory_challenge+0x254>
    12c8:	00003537          	lui	a0,0x3
    12cc:	e5050513          	addi	a0,a0,-432 # 2e50 <__global_pointer+0x4a3>
    12d0:	ee1fe0ef          	jal	1b0 <print>
    12d4:	00c12083          	lw	ra,12(sp)
    12d8:	00812403          	lw	s0,8(sp)
    12dc:	00412483          	lw	s1,4(sp)
    12e0:	00000513          	li	a0,0
    12e4:	01010113          	addi	sp,sp,16
    12e8:	00008067          	ret
    12ec:	00003537          	lui	a0,0x3
    12f0:	e2850513          	addi	a0,a0,-472 # 2e28 <__global_pointer+0x47b>
    12f4:	ebdfe0ef          	jal	1b0 <print>
    12f8:	00c12083          	lw	ra,12(sp)
    12fc:	00812403          	lw	s0,8(sp)
    1300:	00412483          	lw	s1,4(sp)
    1304:	00100513          	li	a0,1
    1308:	01010113          	addi	sp,sp,16
    130c:	00008067          	ret

00001310 <vault_7segment_puzzle_binary>:
    1310:	00003537          	lui	a0,0x3
    1314:	f9010113          	addi	sp,sp,-112
    1318:	e6850513          	addi	a0,a0,-408 # 2e68 <__global_pointer+0x4bb>
    131c:	06112623          	sw	ra,108(sp)
    1320:	06812423          	sw	s0,104(sp)
    1324:	06912223          	sw	s1,100(sp)
    1328:	07212023          	sw	s2,96(sp)
    132c:	05312e23          	sw	s3,92(sp)
    1330:	05412c23          	sw	s4,88(sp)
    1334:	05512a23          	sw	s5,84(sp)
    1338:	05612823          	sw	s6,80(sp)
    133c:	05712623          	sw	s7,76(sp)
    1340:	05812423          	sw	s8,72(sp)
    1344:	05912223          	sw	s9,68(sp)
    1348:	05a12023          	sw	s10,64(sp)
    134c:	03b12e23          	sw	s11,60(sp)
    1350:	e61fe0ef          	jal	1b0 <print>
    1354:	004c5537          	lui	a0,0x4c5
    1358:	b4050513          	addi	a0,a0,-1216 # 4c4b40 <_stack_end+0x3c1084>
    135c:	429000ef          	jal	1f84 <delay>
    1360:	00003537          	lui	a0,0x3
    1364:	e9c50513          	addi	a0,a0,-356 # 2e9c <__global_pointer+0x4ef>
    1368:	e49fe0ef          	jal	1b0 <print>
    136c:	004c5537          	lui	a0,0x4c5
    1370:	b4050513          	addi	a0,a0,-1216 # 4c4b40 <_stack_end+0x3c1084>
    1374:	411000ef          	jal	1f84 <delay>
    1378:	00003537          	lui	a0,0x3
    137c:	ec450513          	addi	a0,a0,-316 # 2ec4 <__global_pointer+0x517>
    1380:	e31fe0ef          	jal	1b0 <print>
    1384:	004c5537          	lui	a0,0x4c5
    1388:	b4050513          	addi	a0,a0,-1216 # 4c4b40 <_stack_end+0x3c1084>
    138c:	3f9000ef          	jal	1f84 <delay>
    1390:	00003537          	lui	a0,0x3
    1394:	ef850513          	addi	a0,a0,-264 # 2ef8 <__global_pointer+0x54b>
    1398:	e19fe0ef          	jal	1b0 <print>
    139c:	004c5537          	lui	a0,0x4c5
    13a0:	b4050513          	addi	a0,a0,-1216 # 4c4b40 <_stack_end+0x3c1084>
    13a4:	3e1000ef          	jal	1f84 <delay>
    13a8:	00003537          	lui	a0,0x3
    13ac:	f1450513          	addi	a0,a0,-236 # 2f14 <__global_pointer+0x567>
    13b0:	e01fe0ef          	jal	1b0 <print>
    13b4:	004c5537          	lui	a0,0x4c5
    13b8:	b4050513          	addi	a0,a0,-1216 # 4c4b40 <_stack_end+0x3c1084>
    13bc:	3c9000ef          	jal	1f84 <delay>
    13c0:	00003537          	lui	a0,0x3
    13c4:	f4050513          	addi	a0,a0,-192 # 2f40 <__global_pointer+0x593>
    13c8:	de9fe0ef          	jal	1b0 <print>
    13cc:	04000937          	lui	s2,0x4000
    13d0:	0a090913          	addi	s2,s2,160 # 40000a0 <_stack_end+0x3efc5e4>
    13d4:	fb000793          	li	a5,-80
    13d8:	00f90023          	sb	a5,0(s2)
    13dc:	04000437          	lui	s0,0x4000
    13e0:	ff800793          	li	a5,-8
    13e4:	08f40823          	sb	a5,144(s0) # 4000090 <_stack_end+0x3efc5d4>
    13e8:	040004b7          	lui	s1,0x4000
    13ec:	fa400793          	li	a5,-92
    13f0:	08f48023          	sb	a5,128(s1) # 4000080 <_stack_end+0x3efc5c4>
    13f4:	040009b7          	lui	s3,0x4000
    13f8:	f9000793          	li	a5,-112
    13fc:	06f98823          	sb	a5,112(s3) # 4000070 <_stack_end+0x3efc5b4>
    1400:	04000a37          	lui	s4,0x4000
    1404:	ff900793          	li	a5,-7
    1408:	04000ab7          	lui	s5,0x4000
    140c:	06fa0023          	sb	a5,96(s4) # 4000060 <_stack_end+0x3efc5a4>
    1410:	02faf537          	lui	a0,0x2faf
    1414:	f9200793          	li	a5,-110
    1418:	04fa8823          	sb	a5,80(s5) # 4000050 <_stack_end+0x3efc594>
    141c:	08050513          	addi	a0,a0,128 # 2faf080 <_stack_end+0x2eab5c4>
    1420:	365000ef          	jal	1f84 <delay>
    1424:	fc000793          	li	a5,-64
    1428:	04fa8823          	sb	a5,80(s5)
    142c:	06fa0023          	sb	a5,96(s4)
    1430:	00002ab7          	lui	s5,0x2
    1434:	06f98823          	sb	a5,112(s3)
    1438:	220a8a93          	addi	s5,s5,544 # 2220 <digit27seg>
    143c:	08f48023          	sb	a5,128(s1)
    1440:	00caa803          	lw	a6,12(s5)
    1444:	010aa503          	lw	a0,16(s5)
    1448:	014aa583          	lw	a1,20(s5)
    144c:	018aa603          	lw	a2,24(s5)
    1450:	01caa683          	lw	a3,28(s5)
    1454:	020aa703          	lw	a4,32(s5)
    1458:	08f40823          	sb	a5,144(s0)
    145c:	00f90023          	sb	a5,0(s2)
    1460:	04000437          	lui	s0,0x4000
    1464:	00018bb7          	lui	s7,0x18
    1468:	04000b37          	lui	s6,0x4000
    146c:	001e8c37          	lui	s8,0x1e8
    1470:	01012c23          	sw	a6,24(sp)
    1474:	00a12e23          	sw	a0,28(sp)
    1478:	02b12023          	sw	a1,32(sp)
    147c:	02c12223          	sw	a2,36(sp)
    1480:	02d12423          	sw	a3,40(sp)
    1484:	02e12623          	sw	a4,44(sp)
    1488:	01810993          	addi	s3,sp,24
    148c:	00000493          	li	s1,0
    1490:	00003db7          	lui	s11,0x3
    1494:	00003d37          	lui	s10,0x3
    1498:	00003cb7          	lui	s9,0x3
    149c:	0d040413          	addi	s0,s0,208 # 40000d0 <_stack_end+0x3efc614>
    14a0:	6a0b8b93          	addi	s7,s7,1696 # 186a0 <__global_pointer+0x15cf3>
    14a4:	010b0b13          	addi	s6,s6,16 # 4000010 <_stack_end+0x3efc554>
    14a8:	480c0c13          	addi	s8,s8,1152 # 1e8480 <_stack_end+0xe49c4>
    14ac:	f60d8513          	addi	a0,s11,-160 # 2f60 <__global_pointer+0x5b3>
    14b0:	d01fe0ef          	jal	1b0 <print>
    14b4:	00148493          	addi	s1,s1,1
    14b8:	00048513          	mv	a0,s1
    14bc:	d2dfe0ef          	jal	1e8 <print_dec>
    14c0:	f70d0513          	addi	a0,s10,-144 # 2f70 <__global_pointer+0x5c3>
    14c4:	cedfe0ef          	jal	1b0 <print>
    14c8:	0149aa03          	lw	s4,20(s3)
    14cc:	000a0513          	mv	a0,s4
    14d0:	d19fe0ef          	jal	1e8 <print_dec>
    14d4:	f80c8513          	addi	a0,s9,-128 # 2f80 <__global_pointer+0x5d3>
    14d8:	cd9fe0ef          	jal	1b0 <print>
    14dc:	00042783          	lw	a5,0(s0)
    14e0:	0017f793          	andi	a5,a5,1
    14e4:	02079663          	bnez	a5,1510 <vault_7segment_puzzle_binary+0x200>
    14e8:	3e800513          	li	a0,1000
    14ec:	299000ef          	jal	1f84 <delay>
    14f0:	00042783          	lw	a5,0(s0)
    14f4:	0017f793          	andi	a5,a5,1
    14f8:	fe0788e3          	beqz	a5,14e8 <vault_7segment_puzzle_binary+0x1d8>
    14fc:	00042783          	lw	a5,0(s0)
    1500:	0017f793          	andi	a5,a5,1
    1504:	00078c63          	beqz	a5,151c <vault_7segment_puzzle_binary+0x20c>
    1508:	3e800513          	li	a0,1000
    150c:	279000ef          	jal	1f84 <delay>
    1510:	00042783          	lw	a5,0(s0)
    1514:	0017f793          	andi	a5,a5,1
    1518:	fe0798e3          	bnez	a5,1508 <vault_7segment_puzzle_binary+0x1f8>
    151c:	000b8513          	mv	a0,s7
    1520:	265000ef          	jal	1f84 <delay>
    1524:	000b2703          	lw	a4,0(s6)
    1528:	00675793          	srli	a5,a4,0x6
    152c:	08077693          	andi	a3,a4,128
    1530:	0017f793          	andi	a5,a5,1
    1534:	0c068a63          	beqz	a3,1608 <vault_7segment_puzzle_binary+0x2f8>
    1538:	10077693          	andi	a3,a4,256
    153c:	00278613          	addi	a2,a5,2
    1540:	0e069063          	bnez	a3,1620 <vault_7segment_puzzle_binary+0x310>
    1544:	20077713          	andi	a4,a4,512
    1548:	00a78793          	addi	a5,a5,10
    154c:	00071a63          	bnez	a4,1560 <vault_7segment_puzzle_binary+0x250>
    1550:	00060793          	mv	a5,a2
    1554:	00fa8733          	add	a4,s5,a5
    1558:	00074703          	lbu	a4,0(a4)
    155c:	00e90023          	sb	a4,0(s2)
    1560:	0cfa1e63          	bne	s4,a5,163c <vault_7segment_puzzle_binary+0x32c>
    1564:	000037b7          	lui	a5,0x3
    1568:	f8478513          	addi	a0,a5,-124 # 2f84 <__global_pointer+0x5d7>
    156c:	c45fe0ef          	jal	1b0 <print>
    1570:	000c0513          	mv	a0,s8
    1574:	211000ef          	jal	1f84 <delay>
    1578:	00600793          	li	a5,6
    157c:	ffc98993          	addi	s3,s3,-4
    1580:	ff090913          	addi	s2,s2,-16
    1584:	f2f494e3          	bne	s1,a5,14ac <vault_7segment_puzzle_binary+0x19c>
    1588:	00003537          	lui	a0,0x3
    158c:	fd450513          	addi	a0,a0,-44 # 2fd4 <__global_pointer+0x627>
    1590:	c21fe0ef          	jal	1b0 <print>
    1594:	fc000793          	li	a5,-64
    1598:	04000837          	lui	a6,0x4000
    159c:	04f80823          	sb	a5,80(a6) # 4000050 <_stack_end+0x3efc594>
    15a0:	04000537          	lui	a0,0x4000
    15a4:	06f50023          	sb	a5,96(a0) # 4000060 <_stack_end+0x3efc5a4>
    15a8:	040005b7          	lui	a1,0x4000
    15ac:	06f58823          	sb	a5,112(a1) # 4000070 <_stack_end+0x3efc5b4>
    15b0:	04000637          	lui	a2,0x4000
    15b4:	08f60023          	sb	a5,128(a2) # 4000080 <_stack_end+0x3efc5c4>
    15b8:	040006b7          	lui	a3,0x4000
    15bc:	04000737          	lui	a4,0x4000
    15c0:	08f68823          	sb	a5,144(a3) # 4000090 <_stack_end+0x3efc5d4>
    15c4:	0af70023          	sb	a5,160(a4) # 40000a0 <_stack_end+0x3efc5e4>
    15c8:	00100513          	li	a0,1
    15cc:	06c12083          	lw	ra,108(sp)
    15d0:	06812403          	lw	s0,104(sp)
    15d4:	06412483          	lw	s1,100(sp)
    15d8:	06012903          	lw	s2,96(sp)
    15dc:	05c12983          	lw	s3,92(sp)
    15e0:	05812a03          	lw	s4,88(sp)
    15e4:	05412a83          	lw	s5,84(sp)
    15e8:	05012b03          	lw	s6,80(sp)
    15ec:	04c12b83          	lw	s7,76(sp)
    15f0:	04812c03          	lw	s8,72(sp)
    15f4:	04412c83          	lw	s9,68(sp)
    15f8:	04012d03          	lw	s10,64(sp)
    15fc:	03c12d83          	lw	s11,60(sp)
    1600:	07010113          	addi	sp,sp,112
    1604:	00008067          	ret
    1608:	10077693          	andi	a3,a4,256
    160c:	00069c63          	bnez	a3,1624 <vault_7segment_puzzle_binary+0x314>
    1610:	20077713          	andi	a4,a4,512
    1614:	f40700e3          	beqz	a4,1554 <vault_7segment_puzzle_binary+0x244>
    1618:	00878793          	addi	a5,a5,8
    161c:	f39ff06f          	j	1554 <vault_7segment_puzzle_binary+0x244>
    1620:	00060793          	mv	a5,a2
    1624:	20077713          	andi	a4,a4,512
    1628:	00071663          	bnez	a4,1634 <vault_7segment_puzzle_binary+0x324>
    162c:	00478793          	addi	a5,a5,4
    1630:	f25ff06f          	j	1554 <vault_7segment_puzzle_binary+0x244>
    1634:	00c78793          	addi	a5,a5,12
    1638:	f2fa06e3          	beq	s4,a5,1564 <vault_7segment_puzzle_binary+0x254>
    163c:	00003537          	lui	a0,0x3
    1640:	f9050513          	addi	a0,a0,-112 # 2f90 <__global_pointer+0x5e3>
    1644:	00f12623          	sw	a5,12(sp)
    1648:	b69fe0ef          	jal	1b0 <print>
    164c:	00003537          	lui	a0,0x3
    1650:	fb450513          	addi	a0,a0,-76 # 2fb4 <__global_pointer+0x607>
    1654:	b5dfe0ef          	jal	1b0 <print>
    1658:	00c12783          	lw	a5,12(sp)
    165c:	00078513          	mv	a0,a5
    1660:	b89fe0ef          	jal	1e8 <print_dec>
    1664:	00003537          	lui	a0,0x3
    1668:	fc450513          	addi	a0,a0,-60 # 2fc4 <__global_pointer+0x617>
    166c:	b45fe0ef          	jal	1b0 <print>
    1670:	000a0513          	mv	a0,s4
    1674:	b75fe0ef          	jal	1e8 <print_dec>
    1678:	00002537          	lui	a0,0x2
    167c:	2d850513          	addi	a0,a0,728 # 22d8 <digit27seg+0xb8>
    1680:	b31fe0ef          	jal	1b0 <print>
    1684:	fc000793          	li	a5,-64
    1688:	04000837          	lui	a6,0x4000
    168c:	04f80823          	sb	a5,80(a6) # 4000050 <_stack_end+0x3efc594>
    1690:	04000537          	lui	a0,0x4000
    1694:	06f50023          	sb	a5,96(a0) # 4000060 <_stack_end+0x3efc5a4>
    1698:	040005b7          	lui	a1,0x4000
    169c:	06f58823          	sb	a5,112(a1) # 4000070 <_stack_end+0x3efc5b4>
    16a0:	04000637          	lui	a2,0x4000
    16a4:	08f60023          	sb	a5,128(a2) # 4000080 <_stack_end+0x3efc5c4>
    16a8:	040006b7          	lui	a3,0x4000
    16ac:	04000737          	lui	a4,0x4000
    16b0:	08f68823          	sb	a5,144(a3) # 4000090 <_stack_end+0x3efc5d4>
    16b4:	0af70023          	sb	a5,160(a4) # 40000a0 <_stack_end+0x3efc5e4>
    16b8:	00000513          	li	a0,0
    16bc:	f11ff06f          	j	15cc <vault_7segment_puzzle_binary+0x2bc>

000016c0 <handle_room_interaction>:
    16c0:	ff010113          	addi	sp,sp,-16
    16c4:	00812423          	sw	s0,8(sp)
    16c8:	00002437          	lui	s0,0x2
    16cc:	1b440413          	addi	s0,s0,436 # 21b4 <player>
    16d0:	00042783          	lw	a5,0(s0)
    16d4:	00112623          	sw	ra,12(sp)
    16d8:	00700713          	li	a4,7
    16dc:	38f76063          	bltu	a4,a5,1a5c <handle_room_interaction+0x39c>
    16e0:	00002737          	lui	a4,0x2
    16e4:	00279793          	slli	a5,a5,0x2
    16e8:	20070713          	addi	a4,a4,512 # 2200 <timeoutcount+0x28>
    16ec:	00e787b3          	add	a5,a5,a4
    16f0:	0007a783          	lw	a5,0(a5)
    16f4:	00078067          	jr	a5
    16f8:	01c42783          	lw	a5,28(s0)
    16fc:	3e079663          	bnez	a5,1ae8 <handle_room_interaction+0x428>
    1700:	00003537          	lui	a0,0x3
    1704:	4e850513          	addi	a0,a0,1256 # 34e8 <__global_pointer+0xb3b>
    1708:	aa9fe0ef          	jal	1b0 <print>
    170c:	001e8537          	lui	a0,0x1e8
    1710:	48050513          	addi	a0,a0,1152 # 1e8480 <_stack_end+0xe49c4>
    1714:	071000ef          	jal	1f84 <delay>
    1718:	00003537          	lui	a0,0x3
    171c:	50c50513          	addi	a0,a0,1292 # 350c <__global_pointer+0xb5f>
    1720:	a91fe0ef          	jal	1b0 <print>
    1724:	001e8537          	lui	a0,0x1e8
    1728:	48050513          	addi	a0,a0,1152 # 1e8480 <_stack_end+0xe49c4>
    172c:	059000ef          	jal	1f84 <delay>
    1730:	00003537          	lui	a0,0x3
    1734:	52c50513          	addi	a0,a0,1324 # 352c <__global_pointer+0xb7f>
    1738:	a79fe0ef          	jal	1b0 <print>
    173c:	001e8537          	lui	a0,0x1e8
    1740:	48050513          	addi	a0,a0,1152 # 1e8480 <_stack_end+0xe49c4>
    1744:	041000ef          	jal	1f84 <delay>
    1748:	00003537          	lui	a0,0x3
    174c:	56050513          	addi	a0,a0,1376 # 3560 <__global_pointer+0xbb3>
    1750:	a61fe0ef          	jal	1b0 <print>
    1754:	001e8537          	lui	a0,0x1e8
    1758:	48050513          	addi	a0,a0,1152 # 1e8480 <_stack_end+0xe49c4>
    175c:	029000ef          	jal	1f84 <delay>
    1760:	00003537          	lui	a0,0x3
    1764:	58450513          	addi	a0,a0,1412 # 3584 <__global_pointer+0xbd7>
    1768:	a49fe0ef          	jal	1b0 <print>
    176c:	001e8537          	lui	a0,0x1e8
    1770:	48050513          	addi	a0,a0,1152 # 1e8480 <_stack_end+0xe49c4>
    1774:	011000ef          	jal	1f84 <delay>
    1778:	00003537          	lui	a0,0x3
    177c:	5a450513          	addi	a0,a0,1444 # 35a4 <__global_pointer+0xbf7>
    1780:	a31fe0ef          	jal	1b0 <print>
    1784:	00100793          	li	a5,1
    1788:	00f42e23          	sw	a5,28(s0)
    178c:	00c12083          	lw	ra,12(sp)
    1790:	00812403          	lw	s0,8(sp)
    1794:	01010113          	addi	sp,sp,16
    1798:	00008067          	ret
    179c:	01442783          	lw	a5,20(s0)
    17a0:	30079863          	bnez	a5,1ab0 <handle_room_interaction+0x3f0>
    17a4:	00003537          	lui	a0,0x3
    17a8:	ffc50513          	addi	a0,a0,-4 # 2ffc <__global_pointer+0x64f>
    17ac:	00912223          	sw	s1,4(sp)
    17b0:	a01fe0ef          	jal	1b0 <print>
    17b4:	001e8537          	lui	a0,0x1e8
    17b8:	48050513          	addi	a0,a0,1152 # 1e8480 <_stack_end+0xe49c4>
    17bc:	7c8000ef          	jal	1f84 <delay>
    17c0:	00003537          	lui	a0,0x3
    17c4:	01c50513          	addi	a0,a0,28 # 301c <__global_pointer+0x66f>
    17c8:	9e9fe0ef          	jal	1b0 <print>
    17cc:	001e8537          	lui	a0,0x1e8
    17d0:	48050513          	addi	a0,a0,1152 # 1e8480 <_stack_end+0xe49c4>
    17d4:	7b0000ef          	jal	1f84 <delay>
    17d8:	00003537          	lui	a0,0x3
    17dc:	04c50513          	addi	a0,a0,76 # 304c <__global_pointer+0x69f>
    17e0:	9d1fe0ef          	jal	1b0 <print>
    17e4:	001e8537          	lui	a0,0x1e8
    17e8:	48050513          	addi	a0,a0,1152 # 1e8480 <_stack_end+0xe49c4>
    17ec:	798000ef          	jal	1f84 <delay>
    17f0:	00003537          	lui	a0,0x3
    17f4:	08050513          	addi	a0,a0,128 # 3080 <__global_pointer+0x6d3>
    17f8:	9b9fe0ef          	jal	1b0 <print>
    17fc:	001e8537          	lui	a0,0x1e8
    1800:	48050513          	addi	a0,a0,1152 # 1e8480 <_stack_end+0xe49c4>
    1804:	780000ef          	jal	1f84 <delay>
    1808:	00003537          	lui	a0,0x3
    180c:	0ac50513          	addi	a0,a0,172 # 30ac <__global_pointer+0x6ff>
    1810:	9a1fe0ef          	jal	1b0 <print>
    1814:	001e8537          	lui	a0,0x1e8
    1818:	48050513          	addi	a0,a0,1152 # 1e8480 <_stack_end+0xe49c4>
    181c:	768000ef          	jal	1f84 <delay>
    1820:	00003537          	lui	a0,0x3
    1824:	0c850513          	addi	a0,a0,200 # 30c8 <__global_pointer+0x71b>
    1828:	989fe0ef          	jal	1b0 <print>
    182c:	001e8537          	lui	a0,0x1e8
    1830:	48050513          	addi	a0,a0,1152 # 1e8480 <_stack_end+0xe49c4>
    1834:	750000ef          	jal	1f84 <delay>
    1838:	00003537          	lui	a0,0x3
    183c:	0e850513          	addi	a0,a0,232 # 30e8 <__global_pointer+0x73b>
    1840:	040004b7          	lui	s1,0x4000
    1844:	96dfe0ef          	jal	1b0 <print>
    1848:	0d04a783          	lw	a5,208(s1) # 40000d0 <_stack_end+0x3efc614>
    184c:	0d048493          	addi	s1,s1,208
    1850:	0017f793          	andi	a5,a5,1
    1854:	00079c63          	bnez	a5,186c <handle_room_interaction+0x1ac>
    1858:	3e800513          	li	a0,1000
    185c:	728000ef          	jal	1f84 <delay>
    1860:	0004a783          	lw	a5,0(s1)
    1864:	0017f793          	andi	a5,a5,1
    1868:	fe0788e3          	beqz	a5,1858 <handle_room_interaction+0x198>
    186c:	040004b7          	lui	s1,0x4000
    1870:	0d04a783          	lw	a5,208(s1) # 40000d0 <_stack_end+0x3efc614>
    1874:	0d048493          	addi	s1,s1,208
    1878:	0017f793          	andi	a5,a5,1
    187c:	00078c63          	beqz	a5,1894 <handle_room_interaction+0x1d4>
    1880:	3e800513          	li	a0,1000
    1884:	700000ef          	jal	1f84 <delay>
    1888:	0004a783          	lw	a5,0(s1)
    188c:	0017f793          	andi	a5,a5,1
    1890:	fe0798e3          	bnez	a5,1880 <handle_room_interaction+0x1c0>
    1894:	00018537          	lui	a0,0x18
    1898:	6a050513          	addi	a0,a0,1696 # 186a0 <__global_pointer+0x15cf3>
    189c:	6e8000ef          	jal	1f84 <delay>
    18a0:	04000737          	lui	a4,0x4000
    18a4:	01072783          	lw	a5,16(a4) # 4000010 <_stack_end+0x3efc554>
    18a8:	2007f713          	andi	a4,a5,512
    18ac:	26071663          	bnez	a4,1b18 <handle_room_interaction+0x458>
    18b0:	1007f713          	andi	a4,a5,256
    18b4:	0807f793          	andi	a5,a5,128
    18b8:	2e070a63          	beqz	a4,1bac <handle_room_interaction+0x4ec>
    18bc:	2e079063          	bnez	a5,1b9c <handle_room_interaction+0x4dc>
    18c0:	00003537          	lui	a0,0x3
    18c4:	66c50513          	addi	a0,a0,1644 # 366c <__global_pointer+0xcbf>
    18c8:	8e9fe0ef          	jal	1b0 <print>
    18cc:	00200793          	li	a5,2
    18d0:	00f42c23          	sw	a5,24(s0)
    18d4:	00100793          	li	a5,1
    18d8:	00412483          	lw	s1,4(sp)
    18dc:	00f42a23          	sw	a5,20(s0)
    18e0:	eadff06f          	j	178c <handle_room_interaction+0xcc>
    18e4:	00002437          	lui	s0,0x2
    18e8:	04840413          	addi	s0,s0,72 # 2048 <rooms>
    18ec:	06842783          	lw	a5,104(s0)
    18f0:	18079263          	bnez	a5,1a74 <handle_room_interaction+0x3b4>
    18f4:	00003537          	lui	a0,0x3
    18f8:	1dc50513          	addi	a0,a0,476 # 31dc <__global_pointer+0x82f>
    18fc:	8b5fe0ef          	jal	1b0 <print>
    1900:	01313537          	lui	a0,0x1313
    1904:	d0050513          	addi	a0,a0,-768 # 1312d00 <_stack_end+0x120f244>
    1908:	67c000ef          	jal	1f84 <delay>
    190c:	00003537          	lui	a0,0x3
    1910:	21050513          	addi	a0,a0,528 # 3210 <__global_pointer+0x863>
    1914:	89dfe0ef          	jal	1b0 <print>
    1918:	00989537          	lui	a0,0x989
    191c:	68050513          	addi	a0,a0,1664 # 989680 <_stack_end+0x885bc4>
    1920:	664000ef          	jal	1f84 <delay>
    1924:	00003537          	lui	a0,0x3
    1928:	21c50513          	addi	a0,a0,540 # 321c <__global_pointer+0x86f>
    192c:	885fe0ef          	jal	1b0 <print>
    1930:	00989537          	lui	a0,0x989
    1934:	68050513          	addi	a0,a0,1664 # 989680 <_stack_end+0x885bc4>
    1938:	64c000ef          	jal	1f84 <delay>
    193c:	00003537          	lui	a0,0x3
    1940:	23450513          	addi	a0,a0,564 # 3234 <__global_pointer+0x887>
    1944:	86dfe0ef          	jal	1b0 <print>
    1948:	00989537          	lui	a0,0x989
    194c:	68050513          	addi	a0,a0,1664 # 989680 <_stack_end+0x885bc4>
    1950:	634000ef          	jal	1f84 <delay>
    1954:	00003537          	lui	a0,0x3
    1958:	24450513          	addi	a0,a0,580 # 3244 <__global_pointer+0x897>
    195c:	855fe0ef          	jal	1b0 <print>
    1960:	00989537          	lui	a0,0x989
    1964:	68050513          	addi	a0,a0,1664 # 989680 <_stack_end+0x885bc4>
    1968:	61c000ef          	jal	1f84 <delay>
    196c:	00003537          	lui	a0,0x3
    1970:	25850513          	addi	a0,a0,600 # 3258 <__global_pointer+0x8ab>
    1974:	83dfe0ef          	jal	1b0 <print>
    1978:	00989537          	lui	a0,0x989
    197c:	68050513          	addi	a0,a0,1664 # 989680 <_stack_end+0x885bc4>
    1980:	604000ef          	jal	1f84 <delay>
    1984:	00003537          	lui	a0,0x3
    1988:	26c50513          	addi	a0,a0,620 # 326c <__global_pointer+0x8bf>
    198c:	825fe0ef          	jal	1b0 <print>
    1990:	01313537          	lui	a0,0x1313
    1994:	d0050513          	addi	a0,a0,-768 # 1312d00 <_stack_end+0x120f244>
    1998:	5ec000ef          	jal	1f84 <delay>
    199c:	00003537          	lui	a0,0x3
    19a0:	2a850513          	addi	a0,a0,680 # 32a8 <__global_pointer+0x8fb>
    19a4:	80dfe0ef          	jal	1b0 <print>
    19a8:	00100793          	li	a5,1
    19ac:	06f42423          	sw	a5,104(s0)
    19b0:	dddff06f          	j	178c <handle_room_interaction+0xcc>
    19b4:	00912223          	sw	s1,4(sp)
    19b8:	000024b7          	lui	s1,0x2
    19bc:	04848493          	addi	s1,s1,72 # 2048 <rooms>
    19c0:	0884a783          	lw	a5,136(s1)
    19c4:	08c4a703          	lw	a4,140(s1)
    19c8:	10078663          	beqz	a5,1ad4 <handle_room_interaction+0x414>
    19cc:	16070463          	beqz	a4,1b34 <handle_room_interaction+0x474>
    19d0:	00002537          	lui	a0,0x2
    19d4:	00412483          	lw	s1,4(sp)
    19d8:	49050513          	addi	a0,a0,1168 # 2490 <digit27seg+0x270>
    19dc:	0880006f          	j	1a64 <handle_room_interaction+0x3a4>
    19e0:	01042783          	lw	a5,16(s0)
    19e4:	1a079063          	bnez	a5,1b84 <handle_room_interaction+0x4c4>
    19e8:	00c42783          	lw	a5,12(s0)
    19ec:	10078a63          	beqz	a5,1b00 <handle_room_interaction+0x440>
    19f0:	00003537          	lui	a0,0x3
    19f4:	3c450513          	addi	a0,a0,964 # 33c4 <__global_pointer+0xa17>
    19f8:	fb8fe0ef          	jal	1b0 <print>
    19fc:	00989537          	lui	a0,0x989
    1a00:	68050513          	addi	a0,a0,1664 # 989680 <_stack_end+0x885bc4>
    1a04:	580000ef          	jal	1f84 <delay>
    1a08:	ae8ff0ef          	jal	cf0 <reaction_challenge>
    1a0c:	18050263          	beqz	a0,1b90 <handle_room_interaction+0x4d0>
    1a10:	00003537          	lui	a0,0x3
    1a14:	00100793          	li	a5,1
    1a18:	3f850513          	addi	a0,a0,1016 # 33f8 <__global_pointer+0xa4b>
    1a1c:	00f42823          	sw	a5,16(s0)
    1a20:	0440006f          	j	1a64 <handle_room_interaction+0x3a4>
    1a24:	01042783          	lw	a5,16(s0)
    1a28:	06079263          	bnez	a5,1a8c <handle_room_interaction+0x3cc>
    1a2c:	00003537          	lui	a0,0x3
    1a30:	48050513          	addi	a0,a0,1152 # 3480 <__global_pointer+0xad3>
    1a34:	0300006f          	j	1a64 <handle_room_interaction+0x3a4>
    1a38:	00842783          	lw	a5,8(s0)
    1a3c:	0a079c63          	bnez	a5,1af4 <handle_room_interaction+0x434>
    1a40:	8d1ff0ef          	jal	1310 <vault_7segment_puzzle_binary>
    1a44:	d40504e3          	beqz	a0,178c <handle_room_interaction+0xcc>
    1a48:	00003537          	lui	a0,0x3
    1a4c:	00100793          	li	a5,1
    1a50:	1bc50513          	addi	a0,a0,444 # 31bc <__global_pointer+0x80f>
    1a54:	00f42423          	sw	a5,8(s0)
    1a58:	00c0006f          	j	1a64 <handle_room_interaction+0x3a4>
    1a5c:	00003537          	lui	a0,0x3
    1a60:	62850513          	addi	a0,a0,1576 # 3628 <__global_pointer+0xc7b>
    1a64:	00812403          	lw	s0,8(sp)
    1a68:	00c12083          	lw	ra,12(sp)
    1a6c:	01010113          	addi	sp,sp,16
    1a70:	f40fe06f          	j	1b0 <print>
    1a74:	00002537          	lui	a0,0x2
    1a78:	62050513          	addi	a0,a0,1568 # 2620 <digit27seg+0x400>
    1a7c:	f34fe0ef          	jal	1b0 <print>
    1a80:	00003537          	lui	a0,0x3
    1a84:	2cc50513          	addi	a0,a0,716 # 32cc <__global_pointer+0x91f>
    1a88:	fddff06f          	j	1a64 <handle_room_interaction+0x3a4>
    1a8c:	00912223          	sw	s1,4(sp)
    1a90:	000024b7          	lui	s1,0x2
    1a94:	04848493          	addi	s1,s1,72 # 2048 <rooms>
    1a98:	0f84a783          	lw	a5,248(s1)
    1a9c:	0c078463          	beqz	a5,1b64 <handle_room_interaction+0x4a4>
    1aa0:	00003537          	lui	a0,0x3
    1aa4:	00412483          	lw	s1,4(sp)
    1aa8:	4bc50513          	addi	a0,a0,1212 # 34bc <__global_pointer+0xb0f>
    1aac:	fb9ff06f          	j	1a64 <handle_room_interaction+0x3a4>
    1ab0:	00003537          	lui	a0,0x3
    1ab4:	15c50513          	addi	a0,a0,348 # 315c <__global_pointer+0x7af>
    1ab8:	ef8fe0ef          	jal	1b0 <print>
    1abc:	001e8537          	lui	a0,0x1e8
    1ac0:	48050513          	addi	a0,a0,1152 # 1e8480 <_stack_end+0xe49c4>
    1ac4:	4c0000ef          	jal	1f84 <delay>
    1ac8:	00003537          	lui	a0,0x3
    1acc:	18850513          	addi	a0,a0,392 # 3188 <__global_pointer+0x7db>
    1ad0:	f95ff06f          	j	1a64 <handle_room_interaction+0x3a4>
    1ad4:	ee071ee3          	bnez	a4,19d0 <handle_room_interaction+0x310>
    1ad8:	00003537          	lui	a0,0x3
    1adc:	00412483          	lw	s1,4(sp)
    1ae0:	34450513          	addi	a0,a0,836 # 3344 <__global_pointer+0x997>
    1ae4:	f81ff06f          	j	1a64 <handle_room_interaction+0x3a4>
    1ae8:	00003537          	lui	a0,0x3
    1aec:	5e450513          	addi	a0,a0,1508 # 35e4 <__global_pointer+0xc37>
    1af0:	f75ff06f          	j	1a64 <handle_room_interaction+0x3a4>
    1af4:	00002537          	lui	a0,0x2
    1af8:	40850513          	addi	a0,a0,1032 # 2408 <digit27seg+0x1e8>
    1afc:	f69ff06f          	j	1a64 <handle_room_interaction+0x3a4>
    1b00:	00003537          	lui	a0,0x3
    1b04:	36450513          	addi	a0,a0,868 # 3364 <__global_pointer+0x9b7>
    1b08:	ea8fe0ef          	jal	1b0 <print>
    1b0c:	00003537          	lui	a0,0x3
    1b10:	39c50513          	addi	a0,a0,924 # 339c <__global_pointer+0x9ef>
    1b14:	f51ff06f          	j	1a64 <handle_room_interaction+0x3a4>
    1b18:	1807f793          	andi	a5,a5,384
    1b1c:	08079063          	bnez	a5,1b9c <handle_room_interaction+0x4dc>
    1b20:	00003537          	lui	a0,0x3
    1b24:	65050513          	addi	a0,a0,1616 # 3650 <__global_pointer+0xca3>
    1b28:	e88fe0ef          	jal	1b0 <print>
    1b2c:	00100793          	li	a5,1
    1b30:	da1ff06f          	j	18d0 <handle_room_interaction+0x210>
    1b34:	d64ff0ef          	jal	1098 <office_memory_challenge>
    1b38:	08050663          	beqz	a0,1bc4 <handle_room_interaction+0x504>
    1b3c:	00003537          	lui	a0,0x3
    1b40:	01212023          	sw	s2,0(sp)
    1b44:	2f050513          	addi	a0,a0,752 # 32f0 <__global_pointer+0x943>
    1b48:	00100913          	li	s2,1
    1b4c:	01242623          	sw	s2,12(s0)
    1b50:	e60fe0ef          	jal	1b0 <print>
    1b54:	0924a623          	sw	s2,140(s1)
    1b58:	00412483          	lw	s1,4(sp)
    1b5c:	00012903          	lw	s2,0(sp)
    1b60:	c2dff06f          	j	178c <handle_room_interaction+0xcc>
    1b64:	00003537          	lui	a0,0x3
    1b68:	46450513          	addi	a0,a0,1124 # 3464 <__global_pointer+0xab7>
    1b6c:	e44fe0ef          	jal	1b0 <print>
    1b70:	00100793          	li	a5,1
    1b74:	0ef4ac23          	sw	a5,248(s1)
    1b78:	00f42223          	sw	a5,4(s0)
    1b7c:	00412483          	lw	s1,4(sp)
    1b80:	c0dff06f          	j	178c <handle_room_interaction+0xcc>
    1b84:	00002537          	lui	a0,0x2
    1b88:	67c50513          	addi	a0,a0,1660 # 267c <digit27seg+0x45c>
    1b8c:	ed9ff06f          	j	1a64 <handle_room_interaction+0x3a4>
    1b90:	00003537          	lui	a0,0x3
    1b94:	42c50513          	addi	a0,a0,1068 # 342c <__global_pointer+0xa7f>
    1b98:	ecdff06f          	j	1a64 <handle_room_interaction+0x3a4>
    1b9c:	00003537          	lui	a0,0x3
    1ba0:	00412483          	lw	s1,4(sp)
    1ba4:	13450513          	addi	a0,a0,308 # 3134 <__global_pointer+0x787>
    1ba8:	ebdff06f          	j	1a64 <handle_room_interaction+0x3a4>
    1bac:	fe0788e3          	beqz	a5,1b9c <handle_room_interaction+0x4dc>
    1bb0:	00003537          	lui	a0,0x3
    1bb4:	11850513          	addi	a0,a0,280 # 3118 <__global_pointer+0x76b>
    1bb8:	df8fe0ef          	jal	1b0 <print>
    1bbc:	00300793          	li	a5,3
    1bc0:	d11ff06f          	j	18d0 <handle_room_interaction+0x210>
    1bc4:	00003537          	lui	a0,0x3
    1bc8:	00412483          	lw	s1,4(sp)
    1bcc:	31050513          	addi	a0,a0,784 # 3310 <__global_pointer+0x963>
    1bd0:	e95ff06f          	j	1a64 <handle_room_interaction+0x3a4>

00001bd4 <main>:
    1bd4:	00003537          	lui	a0,0x3
    1bd8:	fc010113          	addi	sp,sp,-64
    1bdc:	68c50513          	addi	a0,a0,1676 # 368c <__global_pointer+0xcdf>
    1be0:	02112e23          	sw	ra,60(sp)
    1be4:	02912a23          	sw	s1,52(sp)
    1be8:	03212823          	sw	s2,48(sp)
    1bec:	03312623          	sw	s3,44(sp)
    1bf0:	03412423          	sw	s4,40(sp)
    1bf4:	03512223          	sw	s5,36(sp)
    1bf8:	03612023          	sw	s6,32(sp)
    1bfc:	01712e23          	sw	s7,28(sp)
    1c00:	01812c23          	sw	s8,24(sp)
    1c04:	01912a23          	sw	s9,20(sp)
    1c08:	01a12823          	sw	s10,16(sp)
    1c0c:	01b12623          	sw	s11,12(sp)
    1c10:	02812c23          	sw	s0,56(sp)
    1c14:	d9cfe0ef          	jal	1b0 <print>
    1c18:	00e4e537          	lui	a0,0xe4e
    1c1c:	1c050513          	addi	a0,a0,448 # e4e1c0 <_stack_end+0xd4a704>
    1c20:	364000ef          	jal	1f84 <delay>
    1c24:	00003537          	lui	a0,0x3
    1c28:	6b050513          	addi	a0,a0,1712 # 36b0 <__global_pointer+0xd03>
    1c2c:	d84fe0ef          	jal	1b0 <print>
    1c30:	01313537          	lui	a0,0x1313
    1c34:	d0050513          	addi	a0,a0,-768 # 1312d00 <_stack_end+0x120f244>
    1c38:	34c000ef          	jal	1f84 <delay>
    1c3c:	00003537          	lui	a0,0x3
    1c40:	6dc50513          	addi	a0,a0,1756 # 36dc <__global_pointer+0xd2f>
    1c44:	d6cfe0ef          	jal	1b0 <print>
    1c48:	01313537          	lui	a0,0x1313
    1c4c:	d0050513          	addi	a0,a0,-768 # 1312d00 <_stack_end+0x120f244>
    1c50:	334000ef          	jal	1f84 <delay>
    1c54:	00003537          	lui	a0,0x3
    1c58:	70c50513          	addi	a0,a0,1804 # 370c <__global_pointer+0xd5f>
    1c5c:	d54fe0ef          	jal	1b0 <print>
    1c60:	01313537          	lui	a0,0x1313
    1c64:	d0050513          	addi	a0,a0,-768 # 1312d00 <_stack_end+0x120f244>
    1c68:	31c000ef          	jal	1f84 <delay>
    1c6c:	040009b7          	lui	s3,0x4000
    1c70:	9a1fe0ef          	jal	610 <display_current_room>
    1c74:	04000937          	lui	s2,0x4000
    1c78:	000f4a37          	lui	s4,0xf4
    1c7c:	00989b37          	lui	s6,0x989
    1c80:	000024b7          	lui	s1,0x2
    1c84:	00002cb7          	lui	s9,0x2
    1c88:	00002ab7          	lui	s5,0x2
    1c8c:	00000713          	li	a4,0
    1c90:	048c8c93          	addi	s9,s9,72 # 2048 <rooms>
    1c94:	1b4a8a93          	addi	s5,s5,436 # 21b4 <player>
    1c98:	00003db7          	lui	s11,0x3
    1c9c:	00003c37          	lui	s8,0x3
    1ca0:	00003bb7          	lui	s7,0x3
    1ca4:	01098993          	addi	s3,s3,16 # 4000010 <_stack_end+0x3efc554>
    1ca8:	0d090913          	addi	s2,s2,208 # 40000d0 <_stack_end+0x3efc614>
    1cac:	240a0a13          	addi	s4,s4,576 # f4240 <__global_pointer+0xf1893>
    1cb0:	680b0b13          	addi	s6,s6,1664 # 989680 <_stack_end+0x885bc4>
    1cb4:	fff00d13          	li	s10,-1
    1cb8:	71048493          	addi	s1,s1,1808 # 2710 <digit27seg+0x4f0>
    1cbc:	0740006f          	j	1d30 <main+0x15c>
    1cc0:	00c7f793          	andi	a5,a5,12
    1cc4:	0a079463          	bnez	a5,1d6c <main+0x198>
    1cc8:	0a069263          	bnez	a3,1d6c <main+0x198>
    1ccc:	000aa703          	lw	a4,0(s5)
    1cd0:	00371793          	slli	a5,a4,0x3
    1cd4:	00e787b3          	add	a5,a5,a4
    1cd8:	00279793          	slli	a5,a5,0x2
    1cdc:	00fc87b3          	add	a5,s9,a5
    1ce0:	0107a703          	lw	a4,16(a5)
    1ce4:	11a70063          	beq	a4,s10,1de4 <main+0x210>
    1ce8:	00371793          	slli	a5,a4,0x3
    1cec:	00e787b3          	add	a5,a5,a4
    1cf0:	00279793          	slli	a5,a5,0x2
    1cf4:	00fc87b3          	add	a5,s9,a5
    1cf8:	0187a783          	lw	a5,24(a5)
    1cfc:	00078663          	beqz	a5,1d08 <main+0x134>
    1d00:	00caa783          	lw	a5,12(s5)
    1d04:	0e078863          	beqz	a5,1df4 <main+0x220>
    1d08:	000037b7          	lui	a5,0x3
    1d0c:	95478513          	addi	a0,a5,-1708 # 2954 <digit27seg+0x734>
    1d10:	00eaa023          	sw	a4,0(s5)
    1d14:	c9cfe0ef          	jal	1b0 <print>
    1d18:	8f9fe0ef          	jal	610 <display_current_room>
    1d1c:	000a0513          	mv	a0,s4
    1d20:	264000ef          	jal	1f84 <delay>
    1d24:	00048513          	mv	a0,s1
    1d28:	25c000ef          	jal	1f84 <delay>
    1d2c:	00040713          	mv	a4,s0
    1d30:	0009a783          	lw	a5,0(s3)
    1d34:	00092403          	lw	s0,0(s2)
    1d38:	00147413          	andi	s0,s0,1
    1d3c:	fe0404e3          	beqz	s0,1d24 <main+0x150>
    1d40:	fe0712e3          	bnez	a4,1d24 <main+0x150>
    1d44:	0027f713          	andi	a4,a5,2
    1d48:	0017f693          	andi	a3,a5,1
    1d4c:	f6071ae3          	bnez	a4,1cc0 <main+0xec>
    1d50:	0047f713          	andi	a4,a5,4
    1d54:	0087f793          	andi	a5,a5,8
    1d58:	02070863          	beqz	a4,1d88 <main+0x1b4>
    1d5c:	00079863          	bnez	a5,1d6c <main+0x198>
    1d60:	00069663          	bnez	a3,1d6c <main+0x198>
    1d64:	d59fe0ef          	jal	abc <go_south>
    1d68:	fb5ff06f          	j	1d1c <main+0x148>
    1d6c:	738c0513          	addi	a0,s8,1848 # 3738 <__global_pointer+0xd8b>
    1d70:	c40fe0ef          	jal	1b0 <print>
    1d74:	000b0513          	mv	a0,s6
    1d78:	20c000ef          	jal	1f84 <delay>
    1d7c:	768b8513          	addi	a0,s7,1896 # 3768 <__global_pointer+0xdbb>
    1d80:	c30fe0ef          	jal	1b0 <print>
    1d84:	f99ff06f          	j	1d1c <main+0x148>
    1d88:	00078863          	beqz	a5,1d98 <main+0x1c4>
    1d8c:	fe0690e3          	bnez	a3,1d6c <main+0x198>
    1d90:	ccdfe0ef          	jal	a5c <go_north>
    1d94:	f89ff06f          	j	1d1c <main+0x148>
    1d98:	00069663          	bnez	a3,1da4 <main+0x1d0>
    1d9c:	925ff0ef          	jal	16c0 <handle_room_interaction>
    1da0:	f7dff06f          	j	1d1c <main+0x148>
    1da4:	000aa703          	lw	a4,0(s5)
    1da8:	00371793          	slli	a5,a4,0x3
    1dac:	00e787b3          	add	a5,a5,a4
    1db0:	00279793          	slli	a5,a5,0x2
    1db4:	00fc87b3          	add	a5,s9,a5
    1db8:	0147a783          	lw	a5,20(a5)
    1dbc:	01a78c63          	beq	a5,s10,1dd4 <main+0x200>
    1dc0:	984d8513          	addi	a0,s11,-1660 # 2984 <digit27seg+0x764>
    1dc4:	00faa023          	sw	a5,0(s5)
    1dc8:	be8fe0ef          	jal	1b0 <print>
    1dcc:	845fe0ef          	jal	610 <display_current_room>
    1dd0:	f4dff06f          	j	1d1c <main+0x148>
    1dd4:	000037b7          	lui	a5,0x3
    1dd8:	96478513          	addi	a0,a5,-1692 # 2964 <digit27seg+0x744>
    1ddc:	bd4fe0ef          	jal	1b0 <print>
    1de0:	f3dff06f          	j	1d1c <main+0x148>
    1de4:	000037b7          	lui	a5,0x3
    1de8:	8f478513          	addi	a0,a5,-1804 # 28f4 <digit27seg+0x6d4>
    1dec:	bc4fe0ef          	jal	1b0 <print>
    1df0:	f2dff06f          	j	1d1c <main+0x148>
    1df4:	000037b7          	lui	a5,0x3
    1df8:	91478513          	addi	a0,a5,-1772 # 2914 <digit27seg+0x6f4>
    1dfc:	bb4fe0ef          	jal	1b0 <print>
    1e00:	f1dff06f          	j	1d1c <main+0x148>
    1e04:	01c000ef          	jal	1e20 <timetemplate>

00001e08 <display_string>:
    1e08:	00400893          	li	a7,4
    1e0c:	00000073          	ecall
    1e10:	00a00513          	li	a0,10
    1e14:	00b00893          	li	a7,11
    1e18:	00000073          	ecall
    1e1c:	00008067          	ret

00001e20 <timetemplate>:
    1e20:	00000517          	auipc	a0,0x0
    1e24:	37050513          	addi	a0,a0,880 # 2190 <timstr>
    1e28:	fe1ff0ef          	jal	1e08 <display_string>
    1e2c:	00200513          	li	a0,2
    1e30:	154000ef          	jal	1f84 <delay>
    1e34:	00000517          	auipc	a0,0x0
    1e38:	35850513          	addi	a0,a0,856 # 218c <mytime>
    1e3c:	020000ef          	jal	1e5c <tick>
    1e40:	00000517          	auipc	a0,0x0
    1e44:	35050513          	addi	a0,a0,848 # 2190 <timstr>
    1e48:	00000297          	auipc	t0,0x0
    1e4c:	34428293          	addi	t0,t0,836 # 218c <mytime>
    1e50:	0002a583          	lw	a1,0(t0)
    1e54:	080000ef          	jal	1ed4 <time2string>
    1e58:	fc9ff06f          	j	1e20 <timetemplate>

00001e5c <tick>:
    1e5c:	00052283          	lw	t0,0(a0)
    1e60:	00128293          	addi	t0,t0,1
    1e64:	00f2f313          	andi	t1,t0,15
    1e68:	00a33393          	sltiu	t2,t1,10
    1e6c:	06039063          	bnez	t2,1ecc <tiend>
    1e70:	00628293          	addi	t0,t0,6
    1e74:	0f02f313          	andi	t1,t0,240
    1e78:	06033393          	sltiu	t2,t1,96
    1e7c:	04039863          	bnez	t2,1ecc <tiend>
    1e80:	0a028293          	addi	t0,t0,160
    1e84:	00f00e13          	li	t3,15
    1e88:	008e1e13          	slli	t3,t3,0x8
    1e8c:	01c2f333          	and	t1,t0,t3
    1e90:	00a00e13          	li	t3,10
    1e94:	008e1e13          	slli	t3,t3,0x8
    1e98:	01c323b3          	slt	t2,t1,t3
    1e9c:	02039863          	bnez	t2,1ecc <tiend>
    1ea0:	60028293          	addi	t0,t0,1536
    1ea4:	00f00e13          	li	t3,15
    1ea8:	00ce1e13          	slli	t3,t3,0xc
    1eac:	01c2f333          	and	t1,t0,t3
    1eb0:	00600e13          	li	t3,6
    1eb4:	00ce1e13          	slli	t3,t3,0xc
    1eb8:	01c323b3          	slt	t2,t1,t3
    1ebc:	00039863          	bnez	t2,1ecc <tiend>
    1ec0:	00a00e13          	li	t3,10
    1ec4:	00ce1e13          	slli	t3,t3,0xc
    1ec8:	01c282b3          	add	t0,t0,t3

00001ecc <tiend>:
    1ecc:	00552023          	sw	t0,0(a0)
    1ed0:	00008067          	ret

00001ed4 <time2string>:
    1ed4:	00008313          	mv	t1,ra
    1ed8:	00050413          	mv	s0,a0
    1edc:	00c5d293          	srli	t0,a1,0xc
    1ee0:	00f2f293          	andi	t0,t0,15
    1ee4:	00028513          	mv	a0,t0
    1ee8:	07c000ef          	jal	1f64 <hexasc>
    1eec:	00a40023          	sb	a0,0(s0)
    1ef0:	0085d293          	srli	t0,a1,0x8
    1ef4:	00f2f293          	andi	t0,t0,15
    1ef8:	00028513          	mv	a0,t0
    1efc:	068000ef          	jal	1f64 <hexasc>
    1f00:	00a400a3          	sb	a0,1(s0)
    1f04:	03a00293          	li	t0,58
    1f08:	00540123          	sb	t0,2(s0)
    1f0c:	0045d293          	srli	t0,a1,0x4
    1f10:	00f2f293          	andi	t0,t0,15
    1f14:	00028513          	mv	a0,t0
    1f18:	04c000ef          	jal	1f64 <hexasc>
    1f1c:	00a401a3          	sb	a0,3(s0)
    1f20:	0005d293          	srli	t0,a1,0x0
    1f24:	00f2f293          	andi	t0,t0,15
    1f28:	00028513          	mv	a0,t0
    1f2c:	038000ef          	jal	1f64 <hexasc>
    1f30:	00a40223          	sb	a0,4(s0)
    1f34:	000402a3          	sb	zero,5(s0)
    1f38:	00030093          	mv	ra,t1
    1f3c:	00008067          	ret

00001f40 <hex2asc>:
    1f40:	00400513          	li	a0,4
    1f44:	ffc10113          	addi	sp,sp,-4
    1f48:	00112023          	sw	ra,0(sp)
    1f4c:	018000ef          	jal	1f64 <hexasc>
    1f50:	00b00893          	li	a7,11
    1f54:	00000073          	ecall
    1f58:	00012083          	lw	ra,0(sp)
    1f5c:	00410113          	addi	sp,sp,4
    1f60:	00008067          	ret

00001f64 <hexasc>:
    1f64:	00f57513          	andi	a0,a0,15
    1f68:	00a00293          	li	t0,10
    1f6c:	00555663          	bge	a0,t0,1f78 <letter>
    1f70:	03050513          	addi	a0,a0,48
    1f74:	00008067          	ret

00001f78 <letter>:
    1f78:	ff650513          	addi	a0,a0,-10
    1f7c:	04150513          	addi	a0,a0,65
    1f80:	00008067          	ret

00001f84 <delay>:
    1f84:	00008293          	mv	t0,ra
    1f88:	00050393          	mv	t2,a0
    1f8c:	00001337          	lui	t1,0x1
    1f90:	26730313          	addi	t1,t1,615 # 1267 <office_memory_challenge+0x1cf>
    1f94:	00000e13          	li	t3,0

00001f98 <outer>:
    1f98:	00705a63          	blez	t2,1fac <delay_done>
    1f9c:	fff38393          	addi	t2,t2,-1

00001fa0 <inner>:
    1fa0:	fe6e5ce3          	bge	t3,t1,1f98 <outer>
    1fa4:	001e0e13          	addi	t3,t3,1
    1fa8:	ff9ff06f          	j	1fa0 <inner>

00001fac <delay_done>:
    1fac:	00028093          	mv	ra,t0
    1fb0:	00008067          	ret

Disassembly of section .data:

00001fb4 <welcome_msg>:
    1fb4:	3d3d                	.insn	2, 0x3d3d
    1fb6:	3d3d                	.insn	2, 0x3d3d
    1fb8:	3d3d                	.insn	2, 0x3d3d
    1fba:	3d3d                	.insn	2, 0x3d3d
    1fbc:	3d3d                	.insn	2, 0x3d3d
    1fbe:	3d3d                	.insn	2, 0x3d3d
    1fc0:	3d3d                	.insn	2, 0x3d3d
    1fc2:	3d3d                	.insn	2, 0x3d3d
    1fc4:	3d3d                	.insn	2, 0x3d3d
    1fc6:	3d3d                	.insn	2, 0x3d3d
    1fc8:	3d3d                	.insn	2, 0x3d3d
    1fca:	3d3d                	.insn	2, 0x3d3d
    1fcc:	3d3d                	.insn	2, 0x3d3d
    1fce:	3d3d                	.insn	2, 0x3d3d
    1fd0:	3d3d                	.insn	2, 0x3d3d
    1fd2:	3d3d                	.insn	2, 0x3d3d
    1fd4:	3d3d                	.insn	2, 0x3d3d
    1fd6:	3d3d                	.insn	2, 0x3d3d
    1fd8:	3d3d                	.insn	2, 0x3d3d
    1fda:	3d3d                	.insn	2, 0x3d3d
    1fdc:	3d3d                	.insn	2, 0x3d3d
    1fde:	3d3d                	.insn	2, 0x3d3d
    1fe0:	3d3d                	.insn	2, 0x3d3d
    1fe2:	3d3d                	.insn	2, 0x3d3d
    1fe4:	3d0a                	.insn	2, 0x3d0a
    1fe6:	3d3d                	.insn	2, 0x3d3d
    1fe8:	3d3d                	.insn	2, 0x3d3d
    1fea:	5220                	.insn	2, 0x5220
    1fec:	5349                	.insn	2, 0x5349
    1fee:	20562d43          	.insn	4, 0x20562d43
    1ff2:	6f42                	.insn	2, 0x6f42
    1ff4:	552d746f          	jal	s0,d9546 <__global_pointer+0xd6b99>
    1ff8:	2070                	.insn	2, 0x2070
    1ffa:	7250                	.insn	2, 0x7250
    1ffc:	7365636f          	jal	t1,58732 <__global_pointer+0x55d85>
    2000:	6f4e2073          	csrs	0x6f4,t3
    2004:	6f432077          	.insn	4, 0x6f432077
    2008:	706d                	.insn	2, 0x706d
    200a:	656c                	.insn	2, 0x656c
    200c:	6574                	.insn	2, 0x6574
    200e:	3d20                	.insn	2, 0x3d20
    2010:	3d3d                	.insn	2, 0x3d3d
    2012:	3d3d                	.insn	2, 0x3d3d
    2014:	0a3d                	.insn	2, 0x0a3d
    2016:	3d3d                	.insn	2, 0x3d3d
    2018:	3d3d                	.insn	2, 0x3d3d
    201a:	3d3d                	.insn	2, 0x3d3d
    201c:	3d3d                	.insn	2, 0x3d3d
    201e:	3d3d                	.insn	2, 0x3d3d
    2020:	3d3d                	.insn	2, 0x3d3d
    2022:	3d3d                	.insn	2, 0x3d3d
    2024:	3d3d                	.insn	2, 0x3d3d
    2026:	3d3d                	.insn	2, 0x3d3d
    2028:	3d3d                	.insn	2, 0x3d3d
    202a:	3d3d                	.insn	2, 0x3d3d
    202c:	3d3d                	.insn	2, 0x3d3d
    202e:	3d3d                	.insn	2, 0x3d3d
    2030:	3d3d                	.insn	2, 0x3d3d
    2032:	3d3d                	.insn	2, 0x3d3d
    2034:	3d3d                	.insn	2, 0x3d3d
    2036:	3d3d                	.insn	2, 0x3d3d
    2038:	3d3d                	.insn	2, 0x3d3d
    203a:	3d3d                	.insn	2, 0x3d3d
    203c:	3d3d                	.insn	2, 0x3d3d
    203e:	3d3d                	.insn	2, 0x3d3d
    2040:	3d3d                	.insn	2, 0x3d3d
    2042:	3d3d                	.insn	2, 0x3d3d
    2044:	3d3d                	.insn	2, 0x3d3d
    2046:	000a                	.insn	2, 0x000a

00002048 <rooms>:
    2048:	379c                	.insn	2, 0x379c
    204a:	0000                	.insn	2, 0x
    204c:	37a8                	.insn	2, 0x37a8
    204e:	0000                	.insn	2, 0x
    2050:	ffff                	.insn	2, 0xffff
    2052:	ffff                	.insn	2, 0xffff
    2054:	ffff                	.insn	2, 0xffff
    2056:	ffff                	.insn	2, 0xffff
    2058:	0001                	.insn	2, 0x0001
    205a:	0000                	.insn	2, 0x
    205c:	0002                	.insn	2, 0x0002
	...
    206a:	0000                	.insn	2, 0x
    206c:	39dc                	.insn	2, 0x39dc
    206e:	0000                	.insn	2, 0x
    2070:	383c                	.insn	2, 0x383c
    2072:	0000                	.insn	2, 0x
    2074:	ffff                	.insn	2, 0xffff
    2076:	ffff                	.insn	2, 0xffff
    2078:	0004                	.insn	2, 0x0004
    207a:	0000                	.insn	2, 0x
    207c:	0005                	.insn	2, 0x0005
	...
    208e:	0000                	.insn	2, 0x
    2090:	3934                	.insn	2, 0x3934
    2092:	0000                	.insn	2, 0x
    2094:	38a4                	.insn	2, 0x38a4
    2096:	0000                	.insn	2, 0x
    2098:	00000003          	lb	zero,0(zero) # 0 <_isr_handler>
    209c:	ffff                	.insn	2, 0xffff
    209e:	ffff                	.insn	2, 0xffff
    20a0:	0000                	.insn	2, 0x
    20a2:	0000                	.insn	2, 0x
    20a4:	ffff                	.insn	2, 0xffff
    20a6:	ffff                	.insn	2, 0xffff
	...
    20b4:	38f8                	.insn	2, 0x38f8
    20b6:	0000                	.insn	2, 0x
    20b8:	3900                	.insn	2, 0x3900
    20ba:	0000                	.insn	2, 0x
    20bc:	ffff                	.insn	2, 0xffff
    20be:	ffff                	.insn	2, 0xffff
    20c0:	0002                	.insn	2, 0x0002
    20c2:	0000                	.insn	2, 0x
    20c4:	ffff                	.insn	2, 0xffff
    20c6:	ffff                	.insn	2, 0xffff
    20c8:	ffff                	.insn	2, 0xffff
    20ca:	ffff                	.insn	2, 0xffff
    20cc:	0000                	.insn	2, 0x
    20ce:	0000                	.insn	2, 0x
    20d0:	0001                	.insn	2, 0x0001
    20d2:	0000                	.insn	2, 0x
    20d4:	0000                	.insn	2, 0x
    20d6:	0000                	.insn	2, 0x
    20d8:	393c                	.insn	2, 0x393c
    20da:	0000                	.insn	2, 0x
    20dc:	3944                	.insn	2, 0x3944
    20de:	0000                	.insn	2, 0x
    20e0:	0001                	.insn	2, 0x0001
    20e2:	0000                	.insn	2, 0x
    20e4:	00000007          	.insn	4, 0x0007
    20e8:	ffff                	.insn	2, 0xffff
    20ea:	ffff                	.insn	2, 0xffff
    20ec:	ffff                	.insn	2, 0xffff
    20ee:	ffff                	.insn	2, 0xffff
    20f0:	0001                	.insn	2, 0x0001
	...
    20fa:	0000                	.insn	2, 0x
    20fc:	3a20                	.insn	2, 0x3a20
    20fe:	0000                	.insn	2, 0x
    2100:	3994                	.insn	2, 0x3994
    2102:	0000                	.insn	2, 0x
    2104:	ffff                	.insn	2, 0xffff
    2106:	ffff                	.insn	2, 0xffff
    2108:	0006                	.insn	2, 0x0006
    210a:	0000                	.insn	2, 0x
    210c:	ffff                	.insn	2, 0xffff
    210e:	ffff                	.insn	2, 0xffff
    2110:	0001                	.insn	2, 0x0001
    2112:	0000                	.insn	2, 0x
    2114:	0001                	.insn	2, 0x0001
	...
    211e:	0000                	.insn	2, 0x
    2120:	39e4                	.insn	2, 0x39e4
    2122:	0000                	.insn	2, 0x
    2124:	39ec                	.insn	2, 0x39ec
    2126:	0000                	.insn	2, 0x
    2128:	0005                	.insn	2, 0x0005
    212a:	0000                	.insn	2, 0x
    212c:	ffff                	.insn	2, 0xffff
    212e:	ffff                	.insn	2, 0xffff
    2130:	ffff                	.insn	2, 0xffff
    2132:	ffff                	.insn	2, 0xffff
    2134:	ffff                	.insn	2, 0xffff
    2136:	ffff                	.insn	2, 0xffff
    2138:	0000                	.insn	2, 0x
    213a:	0000                	.insn	2, 0x
    213c:	0001                	.insn	2, 0x0001
    213e:	0000                	.insn	2, 0x
    2140:	0000                	.insn	2, 0x
    2142:	0000                	.insn	2, 0x
    2144:	3a2c                	.insn	2, 0x3a2c
    2146:	0000                	.insn	2, 0x
    2148:	3a38                	.insn	2, 0x3a38
    214a:	0000                	.insn	2, 0x
    214c:	0004                	.insn	2, 0x0004
    214e:	0000                	.insn	2, 0x
    2150:	0008                	.insn	2, 0x0008
    2152:	0000                	.insn	2, 0x
    2154:	ffff                	.insn	2, 0xffff
    2156:	ffff                	.insn	2, 0xffff
    2158:	ffff                	.insn	2, 0xffff
    215a:	ffff                	.insn	2, 0xffff
    215c:	0001                	.insn	2, 0x0001
	...
    2166:	0000                	.insn	2, 0x
    2168:	3a80                	.insn	2, 0x3a80
    216a:	0000                	.insn	2, 0x
    216c:	3a8c                	.insn	2, 0x3a8c
    216e:	0000                	.insn	2, 0x
    2170:	00000007          	.insn	4, 0x0007
    2174:	ffff                	.insn	2, 0xffff
    2176:	ffff                	.insn	2, 0xffff
    2178:	ffff                	.insn	2, 0xffff
    217a:	ffff                	.insn	2, 0xffff
    217c:	ffff                	.insn	2, 0xffff
    217e:	ffff                	.insn	2, 0xffff
	...

0000218c <mytime>:
    218c:	00005957          	.insn	4, 0x5957

00002190 <timstr>:
    2190:	6574                	.insn	2, 0x6574
    2192:	7478                	.insn	2, 0x7478
    2194:	6d20                	.insn	2, 0x6d20
    2196:	2065726f          	jal	tp,5939c <__global_pointer+0x569ef>
    219a:	6574                	.insn	2, 0x6574
    219c:	7478                	.insn	2, 0x7478
    219e:	6c20                	.insn	2, 0x6c20
    21a0:	2073746f          	jal	s0,39ba6 <__global_pointer+0x371f9>
    21a4:	7420666f          	jal	a2,88e6 <__global_pointer+0x5f39>
    21a8:	7865                	.insn	2, 0x7865
    21aa:	0074                	.insn	2, 0x0074
    21ac:	0000                	.insn	2, 0x
	...

000021b0 <pattern_state>:
    21b0:	0001                	.insn	2, 0x0001
	...

Disassembly of section .rodata:

000021dc <digit27seg-0x44>:
    21dc:	080c                	.insn	2, 0x080c
    21de:	0000                	.insn	2, 0x
    21e0:	06e0                	.insn	2, 0x06e0
    21e2:	0000                	.insn	2, 0x
    21e4:	0890                	.insn	2, 0x0890
    21e6:	0000                	.insn	2, 0x
    21e8:	08c4                	.insn	2, 0x08c4
    21ea:	0000                	.insn	2, 0x
    21ec:	08e0                	.insn	2, 0x08e0
    21ee:	0000                	.insn	2, 0x
    21f0:	092c                	.insn	2, 0x092c
    21f2:	0000                	.insn	2, 0x
    21f4:	0908                	.insn	2, 0x0908
    21f6:	0000                	.insn	2, 0x
    21f8:	0948                	.insn	2, 0x0948
    21fa:	0000                	.insn	2, 0x
    21fc:	0774                	.insn	2, 0x0774
    21fe:	0000                	.insn	2, 0x
    2200:	179c                	.insn	2, 0x179c
    2202:	0000                	.insn	2, 0x
    2204:	1a5c                	.insn	2, 0x1a5c
    2206:	0000                	.insn	2, 0x
    2208:	18e4                	.insn	2, 0x18e4
    220a:	0000                	.insn	2, 0x
    220c:	19b4                	.insn	2, 0x19b4
    220e:	0000                	.insn	2, 0x
    2210:	1a38                	.insn	2, 0x1a38
    2212:	0000                	.insn	2, 0x
    2214:	19e0                	.insn	2, 0x19e0
    2216:	0000                	.insn	2, 0x
    2218:	1a24                	.insn	2, 0x1a24
    221a:	0000                	.insn	2, 0x
    221c:	16f8                	.insn	2, 0x16f8
	...

00002220 <digit27seg>:
    2220:	f9c0                	.insn	2, 0xf9c0
    2222:	b0a4                	.insn	2, 0xb0a4
    2224:	9299                	.insn	2, 0x9299
    2226:	f882                	.insn	2, 0xf882
    2228:	9080                	.insn	2, 0x9080
    222a:	0000                	.insn	2, 0x
    222c:	0005                	.insn	2, 0x0005
    222e:	0000                	.insn	2, 0x
    2230:	0001                	.insn	2, 0x0001
    2232:	0000                	.insn	2, 0x
    2234:	0009                	.insn	2, 0x0009
    2236:	0000                	.insn	2, 0x
    2238:	0002                	.insn	2, 0x0002
    223a:	0000                	.insn	2, 0x
    223c:	00000007          	.insn	4, 0x0007
    2240:	00000003          	lb	zero,0(zero) # 0 <_isr_handler>

Disassembly of section .rodata.str1.4:

00002244 <.rodata.str1.4>:
    2244:	5b0a                	.insn	2, 0x5b0a
    2246:	5845                	.insn	2, 0x5845
    2248:	54504543          	.insn	4, 0x54504543
    224c:	4f49                	.insn	2, 0x4f49
    224e:	5d4e                	.insn	2, 0x5d4e
    2250:	4920                	.insn	2, 0x4920
    2252:	736e                	.insn	2, 0x736e
    2254:	7274                	.insn	2, 0x7274
    2256:	6375                	.insn	2, 0x6375
    2258:	6974                	.insn	2, 0x6974
    225a:	61206e6f          	jal	t3,886c <__global_pointer+0x5ebf>
    225e:	6464                	.insn	2, 0x6464
    2260:	6572                	.insn	2, 0x6572
    2262:	6d207373          	csrrci	t1,0x6d2,0
    2266:	7369                	.insn	2, 0x7369
    2268:	6c61                	.insn	2, 0x6c61
    226a:	6769                	.insn	2, 0x6769
    226c:	6d6e                	.insn	2, 0x6d6e
    226e:	6e65                	.insn	2, 0x6e65
    2270:	2e74                	.insn	2, 0x2e74
    2272:	0020                	.insn	2, 0x0020
    2274:	5b0a                	.insn	2, 0x5b0a
    2276:	5845                	.insn	2, 0x5845
    2278:	54504543          	.insn	4, 0x54504543
    227c:	4f49                	.insn	2, 0x4f49
    227e:	5d4e                	.insn	2, 0x5d4e
    2280:	4920                	.insn	2, 0x4920
    2282:	6c6c                	.insn	2, 0x6c6c
    2284:	6765                	.insn	2, 0x6765
    2286:	6c61                	.insn	2, 0x6c61
    2288:	6920                	.insn	2, 0x6920
    228a:	736e                	.insn	2, 0x736e
    228c:	7274                	.insn	2, 0x7274
    228e:	6375                	.insn	2, 0x6375
    2290:	6974                	.insn	2, 0x6974
    2292:	202e6e6f          	jal	t3,e8494 <__global_pointer+0xe5ae7>
    2296:	0000                	.insn	2, 0x
    2298:	0000                	.insn	2, 0x
    229a:	0000                	.insn	2, 0x
    229c:	5b0a                	.insn	2, 0x5b0a
    229e:	5845                	.insn	2, 0x5845
    22a0:	54504543          	.insn	4, 0x54504543
    22a4:	4f49                	.insn	2, 0x4f49
    22a6:	5d4e                	.insn	2, 0x5d4e
    22a8:	5520                	.insn	2, 0x5520
    22aa:	6b6e                	.insn	2, 0x6b6e
    22ac:	6f6e                	.insn	2, 0x6f6e
    22ae:	65206e77          	.insn	4, 0x65206e77
    22b2:	7272                	.insn	2, 0x7272
    22b4:	202e726f          	jal	tp,e94b6 <__global_pointer+0xe6b09>
    22b8:	0000                	.insn	2, 0x
    22ba:	0000                	.insn	2, 0x
    22bc:	7845                	.insn	2, 0x7845
    22be:	74706563          	bltu	zero,t2,2a08 <__global_pointer+0x5b>
    22c2:	6f69                	.insn	2, 0x6f69
    22c4:	206e                	.insn	2, 0x206e
    22c6:	6441                	.insn	2, 0x6441
    22c8:	7264                	.insn	2, 0x7264
    22ca:	7365                	.insn	2, 0x7365
    22cc:	00203a73          	csrrc	s4,frm,zero
    22d0:	3d0a                	.insn	2, 0x3d0a
    22d2:	3d3d                	.insn	2, 0x3d3d
    22d4:	0020                	.insn	2, 0x0020
    22d6:	0000                	.insn	2, 0x
    22d8:	000a                	.insn	2, 0x000a
    22da:	0000                	.insn	2, 0x
    22dc:	474e4f43          	.insn	4, 0x474e4f43
    22e0:	4152                	.insn	2, 0x4152
    22e2:	5554                	.insn	2, 0x5554
    22e4:	414c                	.insn	2, 0x414c
    22e6:	4954                	.insn	2, 0x4954
    22e8:	21534e4f          	.insn	4, 0x21534e4f
    22ec:	5920                	.insn	2, 0x5920
    22ee:	4520554f          	.insn	4, 0x4520554f
    22f2:	50414353          	.insn	4, 0x50414353
    22f6:	4445                	.insn	2, 0x4445
    22f8:	0a21                	.insn	2, 0x0a21
    22fa:	0000                	.insn	2, 0x
    22fc:	6f59                	.insn	2, 0x6f59
    22fe:	2075                	.insn	2, 0x2075
    2300:	63637573          	csrrci	a0,0x636,6
    2304:	7365                	.insn	2, 0x7365
    2306:	6c756673          	csrrsi	a2,0x6c7,10
    230a:	796c                	.insn	2, 0x796c
    230c:	6320                	.insn	2, 0x6320
    230e:	6c706d6f          	jal	s10,91d4 <__global_pointer+0x6827>
    2312:	7465                	.insn	2, 0x7465
    2314:	6465                	.insn	2, 0x6465
    2316:	6120                	.insn	2, 0x6120
    2318:	6c6c                	.insn	2, 0x6c6c
    231a:	6320                	.insn	2, 0x6320
    231c:	6168                	.insn	2, 0x6168
    231e:	6c6c                	.insn	2, 0x6c6c
    2320:	6e65                	.insn	2, 0x6e65
    2322:	21736567          	.insn	4, 0x21736567
    2326:	000a                	.insn	2, 0x000a
    2328:	654d                	.insn	2, 0x654d
    232a:	6f6d                	.insn	2, 0x6f6d
    232c:	7972                	.insn	2, 0x7972
    232e:	4320                	.insn	2, 0x4320
    2330:	6168                	.insn	2, 0x6168
    2332:	6c6c                	.insn	2, 0x6c6c
    2334:	6e65                	.insn	2, 0x6e65
    2336:	203a6567          	.insn	4, 0x203a6567
    233a:	504d4f43          	.insn	4, 0x504d4f43
    233e:	454c                	.insn	2, 0x454c
    2340:	4554                	.insn	2, 0x4554
    2342:	0a44                	.insn	2, 0x0a44
    2344:	0000                	.insn	2, 0x
    2346:	0000                	.insn	2, 0x
    2348:	6552                	.insn	2, 0x6552
    234a:	6361                	.insn	2, 0x6361
    234c:	6974                	.insn	2, 0x6974
    234e:	43206e6f          	jal	t3,8780 <__global_pointer+0x5dd3>
    2352:	6168                	.insn	2, 0x6168
    2354:	6c6c                	.insn	2, 0x6c6c
    2356:	6e65                	.insn	2, 0x6e65
    2358:	203a6567          	.insn	4, 0x203a6567
    235c:	504d4f43          	.insn	4, 0x504d4f43
    2360:	454c                	.insn	2, 0x454c
    2362:	4554                	.insn	2, 0x4554
    2364:	0a44                	.insn	2, 0x0a44
    2366:	0000                	.insn	2, 0x
    2368:	6156                	.insn	2, 0x6156
    236a:	6c75                	.insn	2, 0x6c75
    236c:	2074                	.insn	2, 0x2074
    236e:	7550                	.insn	2, 0x7550
    2370:	7a7a                	.insn	2, 0x7a7a
    2372:	656c                	.insn	2, 0x656c
    2374:	203a                	.insn	2, 0x203a
    2376:	504d4f43          	.insn	4, 0x504d4f43
    237a:	454c                	.insn	2, 0x454c
    237c:	4554                	.insn	2, 0x4554
    237e:	0a44                	.insn	2, 0x0a44
    2380:	0000                	.insn	2, 0x
    2382:	0000                	.insn	2, 0x
    2384:	656d6147          	.insn	4, 0x656d6147
    2388:	4f20                	.insn	2, 0x4f20
    238a:	6576                	.insn	2, 0x6576
    238c:	2072                	.insn	2, 0x2072
    238e:	202d                	.insn	2, 0x202d
    2390:	6f59                	.insn	2, 0x6f59
    2392:	2075                	.insn	2, 0x2075
    2394:	216e6957          	.insn	4, 0x216e6957
    2398:	0a0a                	.insn	2, 0x0a0a
    239a:	0000                	.insn	2, 0x
    239c:	6f59                	.insn	2, 0x6f59
    239e:	2075                	.insn	2, 0x2075
    23a0:	20656573          	csrrsi	a0,0x206,10
    23a4:	2061                	.insn	2, 0x2061
    23a6:	68706f73          	csrrsi	t5,0x687,0
    23aa:	7369                	.insn	2, 0x7369
    23ac:	6974                	.insn	2, 0x6974
    23ae:	65746163          	bltu	s0,s7,29f0 <__global_pointer+0x43>
    23b2:	2064                	.insn	2, 0x2064
    23b4:	6176                	.insn	2, 0x6176
    23b6:	6c75                	.insn	2, 0x6c75
    23b8:	2074                	.insn	2, 0x2074
    23ba:	68746977          	.insn	4, 0x68746977
    23be:	6720                	.insn	2, 0x6720
    23c0:	6f6c                	.insn	2, 0x6f6c
    23c2:	676e6977          	.insn	4, 0x676e6977
    23c6:	3720                	.insn	2, 0x3720
    23c8:	732d                	.insn	2, 0x732d
    23ca:	6765                	.insn	2, 0x6765
    23cc:	656d                	.insn	2, 0x656d
    23ce:	746e                	.insn	2, 0x746e
    23d0:	6420                	.insn	2, 0x6420
    23d2:	7369                	.insn	2, 0x7369
    23d4:	6c70                	.insn	2, 0x6c70
    23d6:	7961                	.insn	2, 0x7961
    23d8:	000a2e73          	csrrs	t3,ustatus,s4
    23dc:	7250                	.insn	2, 0x7250
    23de:	7365                	.insn	2, 0x7365
    23e0:	75622073          	csrs	0x756,tp
    23e4:	7474                	.insn	2, 0x7474
    23e6:	74206e6f          	jal	t3,8b28 <__global_pointer+0x617b>
    23ea:	7461206f          	j	14b30 <__global_pointer+0x12183>
    23ee:	6574                	.insn	2, 0x6574
    23f0:	706d                	.insn	2, 0x706d
    23f2:	2074                	.insn	2, 0x2074
    23f4:	6874                	.insn	2, 0x6874
    23f6:	2065                	.insn	2, 0x2065
    23f8:	6176                	.insn	2, 0x6176
    23fa:	6c75                	.insn	2, 0x6c75
    23fc:	2074                	.insn	2, 0x2074
    23fe:	7570                	.insn	2, 0x7570
    2400:	7a7a                	.insn	2, 0x7a7a
    2402:	656c                	.insn	2, 0x656c
    2404:	0a2e                	.insn	2, 0x0a2e
    2406:	0000                	.insn	2, 0x
    2408:	6f59                	.insn	2, 0x6f59
    240a:	2075                	.insn	2, 0x2075
    240c:	6168                	.insn	2, 0x6168
    240e:	6576                	.insn	2, 0x6576
    2410:	6120                	.insn	2, 0x6120
    2412:	726c                	.insn	2, 0x726c
    2414:	6165                	.insn	2, 0x6165
    2416:	7964                	.insn	2, 0x7964
    2418:	7320                	.insn	2, 0x7320
    241a:	65766c6f          	jal	s8,69270 <__global_pointer+0x668c3>
    241e:	2064                	.insn	2, 0x2064
    2420:	6874                	.insn	2, 0x6874
    2422:	2065                	.insn	2, 0x2065
    2424:	6176                	.insn	2, 0x6176
    2426:	6c75                	.insn	2, 0x6c75
    2428:	2074                	.insn	2, 0x2074
    242a:	7570                	.insn	2, 0x7570
    242c:	7a7a                	.insn	2, 0x7a7a
    242e:	656c                	.insn	2, 0x656c
    2430:	0a2e                	.insn	2, 0x0a2e
    2432:	0000                	.insn	2, 0x
    2434:	6f59                	.insn	2, 0x6f59
    2436:	2075                	.insn	2, 0x2075
    2438:	20656573          	csrrsi	a0,0x206,10
    243c:	2061                	.insn	2, 0x2061
    243e:	796d                	.insn	2, 0x796d
    2440:	72657473          	csrrci	s0,mhpmevent6h,10
    2444:	6f69                	.insn	2, 0x6f69
    2446:	7375                	.insn	2, 0x7375
    2448:	6420                	.insn	2, 0x6420
    244a:	7665                	.insn	2, 0x7665
    244c:	6369                	.insn	2, 0x6369
    244e:	2065                	.insn	2, 0x2065
    2450:	74206e6f          	jal	t3,8b92 <__global_pointer+0x61e5>
    2454:	6568                	.insn	2, 0x6568
    2456:	6420                	.insn	2, 0x6420
    2458:	7365                	.insn	2, 0x7365
    245a:	000a2e6b          	.insn	4, 0x000a2e6b
    245e:	0000                	.insn	2, 0x
    2460:	7250                	.insn	2, 0x7250
    2462:	7365                	.insn	2, 0x7365
    2464:	75622073          	csrs	0x756,tp
    2468:	7474                	.insn	2, 0x7474
    246a:	74206e6f          	jal	t3,8bac <__global_pointer+0x61ff>
    246e:	7865206f          	j	54bf4 <__global_pointer+0x52247>
    2472:	6d61                	.insn	2, 0x6d61
    2474:	6e69                	.insn	2, 0x6e69
    2476:	2065                	.insn	2, 0x2065
    2478:	7469                	.insn	2, 0x7469
    247a:	0a2e                	.insn	2, 0x0a2e
    247c:	0000                	.insn	2, 0x
    247e:	0000                	.insn	2, 0x
    2480:	6f59                	.insn	2, 0x6f59
    2482:	2075                	.insn	2, 0x2075
    2484:	206e6163          	bltu	t3,t1,2686 <digit27seg+0x466>
    2488:	203a6f67          	.insn	4, 0x203a6f67
    248c:	0000                	.insn	2, 0x
    248e:	0000                	.insn	2, 0x
    2490:	6f59                	.insn	2, 0x6f59
    2492:	2075                	.insn	2, 0x2075
    2494:	6168                	.insn	2, 0x6168
    2496:	6576                	.insn	2, 0x6576
    2498:	6120                	.insn	2, 0x6120
    249a:	726c                	.insn	2, 0x726c
    249c:	6165                	.insn	2, 0x6165
    249e:	7964                	.insn	2, 0x7964
    24a0:	7320                	.insn	2, 0x7320
    24a2:	6165                	.insn	2, 0x6165
    24a4:	6372                	.insn	2, 0x6372
    24a6:	6568                	.insn	2, 0x6568
    24a8:	2064                	.insn	2, 0x2064
    24aa:	6874                	.insn	2, 0x6874
    24ac:	7369                	.insn	2, 0x7369
    24ae:	7220                	.insn	2, 0x7220
    24b0:	2e6d6f6f          	jal	t5,d8796 <__global_pointer+0xd5de9>
    24b4:	000a                	.insn	2, 0x000a
    24b6:	0000                	.insn	2, 0x
    24b8:	636c6557          	.insn	4, 0x636c6557
    24bc:	20656d6f          	jal	s10,586c2 <__global_pointer+0x55d15>
    24c0:	6f74                	.insn	2, 0x6f74
    24c2:	7420                	.insn	2, 0x7420
    24c4:	6568                	.insn	2, 0x6568
    24c6:	4520                	.insn	2, 0x4520
    24c8:	70616373          	csrrsi	t1,0x706,2
    24cc:	2065                	.insn	2, 0x2065
    24ce:	6f52                	.insn	2, 0x6f52
    24d0:	4c206d6f          	jal	s10,8992 <__global_pointer+0x5fe5>
    24d4:	6261                	.insn	2, 0x6261
    24d6:	7461726f          	jal	tp,19c1c <__global_pointer+0x1726f>
    24da:	2179726f          	jal	tp,99ef0 <__global_pointer+0x97543>
    24de:	000a                	.insn	2, 0x000a
    24e0:	6f44                	.insn	2, 0x6f44
    24e2:	7920                	.insn	2, 0x7920
    24e4:	7720756f          	jal	a0,9c56 <__global_pointer+0x72a9>
    24e8:	6e61                	.insn	2, 0x6e61
    24ea:	2074                	.insn	2, 0x2074
    24ec:	6f74                	.insn	2, 0x6f74
    24ee:	7320                	.insn	2, 0x7320
    24f0:	6c65                	.insn	2, 0x6c65
    24f2:	6365                	.insn	2, 0x6365
    24f4:	2074                	.insn	2, 0x2074
    24f6:	6f79                	.insn	2, 0x6f79
    24f8:	7275                	.insn	2, 0x7275
    24fa:	6420                	.insn	2, 0x6420
    24fc:	6669                	.insn	2, 0x6669
    24fe:	6966                	.insn	2, 0x6966
    2500:	746c7563          	bgeu	s8,t1,2c4a <__global_pointer+0x29d>
    2504:	2079                	.insn	2, 0x2079
    2506:	656c                	.insn	2, 0x656c
    2508:	6576                	.insn	2, 0x6576
    250a:	3f6c                	.insn	2, 0x3f6c
    250c:	000a                	.insn	2, 0x000a
    250e:	0000                	.insn	2, 0x
    2510:	7250                	.insn	2, 0x7250
    2512:	7365                	.insn	2, 0x7365
    2514:	75622073          	csrs	0x756,tp
    2518:	7474                	.insn	2, 0x7474
    251a:	74206e6f          	jal	t3,8c5c <__global_pointer+0x62af>
    251e:	6573206f          	j	35374 <__global_pointer+0x329c7>
    2522:	656c                	.insn	2, 0x656c
    2524:	64207463          	bgeu	zero,sp,2b6c <__global_pointer+0x1bf>
    2528:	6669                	.insn	2, 0x6669
    252a:	6966                	.insn	2, 0x6966
    252c:	746c7563          	bgeu	s8,t1,2c76 <__global_pointer+0x2c9>
    2530:	2079                	.insn	2, 0x2079
    2532:	6520726f          	jal	tp,9b84 <__global_pointer+0x71d7>
    2536:	7078                	.insn	2, 0x7078
    2538:	6f6c                	.insn	2, 0x6f6c
    253a:	6572                	.insn	2, 0x6572
    253c:	7720                	.insn	2, 0x7720
    253e:	7469                	.insn	2, 0x7469
    2540:	6f68                	.insn	2, 0x6f68
    2542:	7475                	.insn	2, 0x7475
    2544:	7320                	.insn	2, 0x7320
    2546:	6c65                	.insn	2, 0x6c65
    2548:	6365                	.insn	2, 0x6365
    254a:	6974                	.insn	2, 0x6974
    254c:	676e                	.insn	2, 0x676e
    254e:	0a2e                	.insn	2, 0x0a2e
    2550:	0000                	.insn	2, 0x
    2552:	0000                	.insn	2, 0x
    2554:	6f59                	.insn	2, 0x6f59
    2556:	2775                	.insn	2, 0x2775
    2558:	6572                	.insn	2, 0x6572
    255a:	6220                	.insn	2, 0x6220
    255c:	6361                	.insn	2, 0x6361
    255e:	6e69206b          	.insn	4, 0x6e69206b
    2562:	7420                	.insn	2, 0x7420
    2564:	6568                	.insn	2, 0x6568
    2566:	6c20                	.insn	2, 0x6c20
    2568:	6261                	.insn	2, 0x6261
    256a:	7461726f          	jal	tp,19cb0 <__global_pointer+0x17303>
    256e:	2e79726f          	jal	tp,9a054 <__global_pointer+0x976a7>
    2572:	000a                	.insn	2, 0x000a
    2574:	72727543          	.insn	4, 0x72727543
    2578:	6e65                	.insn	2, 0x6e65
    257a:	2074                	.insn	2, 0x2074
    257c:	6964                	.insn	2, 0x6964
    257e:	6666                	.insn	2, 0x6666
    2580:	6369                	.insn	2, 0x6369
    2582:	6c75                	.insn	2, 0x6c75
    2584:	7974                	.insn	2, 0x7974
    2586:	203a                	.insn	2, 0x203a
    2588:	0000                	.insn	2, 0x
    258a:	0000                	.insn	2, 0x
    258c:	6145                	.insn	2, 0x6145
    258e:	28207973          	csrrci	s2,0x282,0
    2592:	6d303033          	.insn	4, 0x6d303033
    2596:	000a2973          	csrrs	s2,ustatus,s4
    259a:	0000                	.insn	2, 0x
    259c:	654d                	.insn	2, 0x654d
    259e:	6964                	.insn	2, 0x6964
    25a0:	6d75                	.insn	2, 0x6d75
    25a2:	2820                	.insn	2, 0x2820
    25a4:	3532                	.insn	2, 0x3532
    25a6:	6d30                	.insn	2, 0x6d30
    25a8:	000a2973          	csrrs	s2,ustatus,s4
    25ac:	6148                	.insn	2, 0x6148
    25ae:	6472                	.insn	2, 0x6472
    25b0:	2820                	.insn	2, 0x2820
    25b2:	3731                	.insn	2, 0x3731
    25b4:	6d35                	.insn	2, 0x6d35
    25b6:	000a2973          	csrrs	s2,ustatus,s4
    25ba:	0000                	.insn	2, 0x
    25bc:	6f59                	.insn	2, 0x6f59
    25be:	2075                	.insn	2, 0x2075
    25c0:	20656573          	csrrsi	a0,0x206,10
    25c4:	7564                	.insn	2, 0x7564
    25c6:	20797473          	csrrci	s0,0x207,18
    25ca:	6c656873          	csrrsi	a6,0x6c6,10
    25ce:	6576                	.insn	2, 0x6576
    25d0:	69662073          	csrs	0x696,a2
    25d4:	6c6c                	.insn	2, 0x6c6c
    25d6:	6465                	.insn	2, 0x6465
    25d8:	7720                	.insn	2, 0x7720
    25da:	7469                	.insn	2, 0x7469
    25dc:	2068                	.insn	2, 0x2068
    25de:	20646c6f          	jal	s8,487e4 <__global_pointer+0x45e37>
    25e2:	7165                	.insn	2, 0x7165
    25e4:	6975                	.insn	2, 0x6975
    25e6:	6d70                	.insn	2, 0x6d70
    25e8:	6e65                	.insn	2, 0x6e65
    25ea:	2e74                	.insn	2, 0x2e74
    25ec:	000a                	.insn	2, 0x000a
    25ee:	0000                	.insn	2, 0x
    25f0:	7250                	.insn	2, 0x7250
    25f2:	7365                	.insn	2, 0x7365
    25f4:	75622073          	csrs	0x756,tp
    25f8:	7474                	.insn	2, 0x7474
    25fa:	74206e6f          	jal	t3,8d3c <__global_pointer+0x638f>
    25fe:	6573206f          	j	35454 <__global_pointer+0x32aa7>
    2602:	7261                	.insn	2, 0x7261
    2604:	74206863          	bltu	zero,sp,2d54 <__global_pointer+0x3a7>
    2608:	7268                	.insn	2, 0x7268
    260a:	6867756f          	jal	a0,79c90 <__global_pointer+0x772e3>
    260e:	7420                	.insn	2, 0x7420
    2610:	6568                	.insn	2, 0x6568
    2612:	7320                	.insn	2, 0x7320
    2614:	6568                	.insn	2, 0x6568
    2616:	766c                	.insn	2, 0x766c
    2618:	7365                	.insn	2, 0x7365
    261a:	0a2e                	.insn	2, 0x0a2e
    261c:	0000                	.insn	2, 0x
    261e:	0000                	.insn	2, 0x
    2620:	6f59                	.insn	2, 0x6f59
    2622:	2075                	.insn	2, 0x2075
    2624:	6168                	.insn	2, 0x6168
    2626:	6576                	.insn	2, 0x6576
    2628:	6120                	.insn	2, 0x6120
    262a:	726c                	.insn	2, 0x726c
    262c:	6165                	.insn	2, 0x6165
    262e:	7964                	.insn	2, 0x7964
    2630:	7320                	.insn	2, 0x7320
    2632:	6165                	.insn	2, 0x6165
    2634:	6372                	.insn	2, 0x6372
    2636:	6568                	.insn	2, 0x6568
    2638:	2064                	.insn	2, 0x2064
    263a:	6874                	.insn	2, 0x6874
    263c:	6f72                	.insn	2, 0x6f72
    263e:	6775                	.insn	2, 0x6775
    2640:	2068                	.insn	2, 0x2068
    2642:	6874                	.insn	2, 0x6874
    2644:	2065                	.insn	2, 0x2065
    2646:	6c656873          	csrrsi	a6,0x6c6,10
    264a:	6576                	.insn	2, 0x6576
    264c:	000a2e73          	csrrs	t3,ustatus,s4
    2650:	7250                	.insn	2, 0x7250
    2652:	7365                	.insn	2, 0x7365
    2654:	75622073          	csrs	0x756,tp
    2658:	7474                	.insn	2, 0x7474
    265a:	74206e6f          	jal	t3,8d9c <__global_pointer+0x63ef>
    265e:	6361206f          	j	14c94 <__global_pointer+0x122e7>
    2662:	74706563          	bltu	zero,t2,2dac <__global_pointer+0x3ff>
    2666:	7420                	.insn	2, 0x7420
    2668:	6568                	.insn	2, 0x6568
    266a:	6220                	.insn	2, 0x6220
    266c:	2073736f          	jal	t1,3a072 <__global_pointer+0x376c5>
    2670:	6c616863          	bltu	sp,t1,2d40 <__global_pointer+0x393>
    2674:	656c                	.insn	2, 0x656c
    2676:	676e                	.insn	2, 0x676e
    2678:	2e65                	.insn	2, 0x2e65
    267a:	000a                	.insn	2, 0x000a
    267c:	6f59                	.insn	2, 0x6f59
    267e:	2075                	.insn	2, 0x2075
    2680:	6168                	.insn	2, 0x6168
    2682:	6576                	.insn	2, 0x6576
    2684:	6120                	.insn	2, 0x6120
    2686:	726c                	.insn	2, 0x726c
    2688:	6165                	.insn	2, 0x6165
    268a:	7964                	.insn	2, 0x7964
    268c:	6420                	.insn	2, 0x6420
    268e:	6665                	.insn	2, 0x6665
    2690:	6165                	.insn	2, 0x6165
    2692:	6574                	.insn	2, 0x6574
    2694:	2064                	.insn	2, 0x2064
    2696:	6874                	.insn	2, 0x6874
    2698:	2065                	.insn	2, 0x2065
    269a:	6f62                	.insn	2, 0x6f62
    269c:	0a2e7373          	csrrci	t1,0xa2,28
    26a0:	0000                	.insn	2, 0x
    26a2:	0000                	.insn	2, 0x
    26a4:	7250                	.insn	2, 0x7250
    26a6:	7365                	.insn	2, 0x7365
    26a8:	75622073          	csrs	0x756,tp
    26ac:	7474                	.insn	2, 0x7474
    26ae:	74206e6f          	jal	t3,8df0 <__global_pointer+0x6443>
    26b2:	6f63206f          	j	34da8 <__global_pointer+0x323fb>
    26b6:	6c6c                	.insn	2, 0x6c6c
    26b8:	6365                	.insn	2, 0x6365
    26ba:	2074                	.insn	2, 0x2074
    26bc:	6f79                	.insn	2, 0x6f79
    26be:	7275                	.insn	2, 0x7275
    26c0:	7220                	.insn	2, 0x7220
    26c2:	7765                	.insn	2, 0x7765
    26c4:	7261                	.insn	2, 0x7261
    26c6:	2e64                	.insn	2, 0x2e64
    26c8:	000a                	.insn	2, 0x000a
    26ca:	0000                	.insn	2, 0x
    26cc:	6f59                	.insn	2, 0x6f59
    26ce:	2075                	.insn	2, 0x2075
    26d0:	6168                	.insn	2, 0x6168
    26d2:	6576                	.insn	2, 0x6576
    26d4:	6120                	.insn	2, 0x6120
    26d6:	726c                	.insn	2, 0x726c
    26d8:	6165                	.insn	2, 0x6165
    26da:	7964                	.insn	2, 0x7964
    26dc:	6320                	.insn	2, 0x6320
    26de:	656c6c6f          	jal	s8,c8d34 <__global_pointer+0xc6387>
    26e2:	64657463          	bgeu	a0,t1,2d2a <__global_pointer+0x37d>
    26e6:	7420                	.insn	2, 0x7420
    26e8:	6568                	.insn	2, 0x6568
    26ea:	7220                	.insn	2, 0x7220
    26ec:	7765                	.insn	2, 0x7765
    26ee:	7261                	.insn	2, 0x7261
    26f0:	2e64                	.insn	2, 0x2e64
    26f2:	000a                	.insn	2, 0x000a
    26f4:	6f59                	.insn	2, 0x6f59
    26f6:	2075                	.insn	2, 0x2075
    26f8:	20656573          	csrrsi	a0,0x206,10
    26fc:	2061                	.insn	2, 0x2061
    26fe:	616d                	.insn	2, 0x616d
    2700:	76697373          	csrrci	t1,0x766,18
    2704:	2065                	.insn	2, 0x2065
    2706:	65657473          	csrrci	s0,hviprio1h,10
    270a:	206c                	.insn	2, 0x206c
    270c:	6f64                	.insn	2, 0x6f64
    270e:	7720726f          	jal	tp,9e80 <__global_pointer+0x74d3>
    2712:	7469                	.insn	2, 0x7469
    2714:	2068                	.insn	2, 0x2068
    2716:	6874                	.insn	2, 0x6874
    2718:	2065                	.insn	2, 0x2065
    271a:	7865                	.insn	2, 0x7865
    271c:	7469                	.insn	2, 0x7469
    271e:	6420                	.insn	2, 0x6420
    2720:	20726f6f          	jal	t5,29126 <__global_pointer+0x26779>
    2724:	2079656b          	.insn	4, 0x2079656b
    2728:	746f6c73          	csrrsi	s8,0x746,30
    272c:	0a2e                	.insn	2, 0x0a2e
    272e:	0000                	.insn	2, 0x
    2730:	7250                	.insn	2, 0x7250
    2732:	7365                	.insn	2, 0x7365
    2734:	75622073          	csrs	0x756,tp
    2738:	7474                	.insn	2, 0x7474
    273a:	74206e6f          	jal	t3,8e7c <__global_pointer+0x64cf>
    273e:	6e69206f          	j	94e24 <__global_pointer+0x92477>
    2742:	74726573          	csrrsi	a0,0x747,4
    2746:	7420                	.insn	2, 0x7420
    2748:	6568                	.insn	2, 0x6568
    274a:	6b20                	.insn	2, 0x6b20
    274c:	7965                	.insn	2, 0x7965
    274e:	6120                	.insn	2, 0x6120
    2750:	646e                	.insn	2, 0x646e
    2752:	6f20                	.insn	2, 0x6f20
    2754:	6570                	.insn	2, 0x6570
    2756:	206e                	.insn	2, 0x206e
    2758:	6874                	.insn	2, 0x6874
    275a:	2065                	.insn	2, 0x2065
    275c:	6f64                	.insn	2, 0x6f64
    275e:	0a2e726f          	jal	tp,e9800 <__global_pointer+0xe6e53>
    2762:	0000                	.insn	2, 0x
    2764:	6f4e                	.insn	2, 0x6f4e
    2766:	7472                	.insn	2, 0x7472
    2768:	2068                	.insn	2, 0x2068
    276a:	0000                	.insn	2, 0x
    276c:	74756f53          	.insn	4, 0x74756f53
    2770:	2068                	.insn	2, 0x2068
    2772:	0000                	.insn	2, 0x
    2774:	6145                	.insn	2, 0x6145
    2776:	00207473          	csrrci	s0,frm,0
    277a:	0000                	.insn	2, 0x
    277c:	74736557          	.insn	4, 0x74736557
    2780:	0020                	.insn	2, 0x0020
    2782:	0000                	.insn	2, 0x
    2784:	6f59                	.insn	2, 0x6f59
    2786:	2075                	.insn	2, 0x2075
    2788:	6e6e6163          	bltu	t3,t1,2e6a <__global_pointer+0x4bd>
    278c:	6720746f          	jal	s0,9dfe <__global_pointer+0x7451>
    2790:	6f6e206f          	j	e4e86 <__global_pointer+0xe24d9>
    2794:	7472                	.insn	2, 0x7472
    2796:	2068                	.insn	2, 0x2068
    2798:	7266                	.insn	2, 0x7266
    279a:	68206d6f          	jal	s10,8e1c <__global_pointer+0x646f>
    279e:	7265                	.insn	2, 0x7265
    27a0:	2e65                	.insn	2, 0x2e65
    27a2:	000a                	.insn	2, 0x000a
    27a4:	6f59                	.insn	2, 0x6f59
    27a6:	2075                	.insn	2, 0x2075
    27a8:	6e206f67          	.insn	4, 0x6e206f67
    27ac:	6874726f          	jal	tp,4a632 <__global_pointer+0x47c85>
    27b0:	0a2e                	.insn	2, 0x0a2e
    27b2:	0000                	.insn	2, 0x
    27b4:	6f59                	.insn	2, 0x6f59
    27b6:	2075                	.insn	2, 0x2075
    27b8:	6e6e6163          	bltu	t3,t1,2e9a <__global_pointer+0x4ed>
    27bc:	6720746f          	jal	s0,9e2e <__global_pointer+0x7481>
    27c0:	6f73206f          	j	356b6 <__global_pointer+0x32d09>
    27c4:	7475                	.insn	2, 0x7475
    27c6:	2068                	.insn	2, 0x2068
    27c8:	7266                	.insn	2, 0x7266
    27ca:	68206d6f          	jal	s10,8e4c <__global_pointer+0x649f>
    27ce:	7265                	.insn	2, 0x7265
    27d0:	2e65                	.insn	2, 0x2e65
    27d2:	000a                	.insn	2, 0x000a
    27d4:	6854                	.insn	2, 0x6854
    27d6:	2065                	.insn	2, 0x2065
    27d8:	6f64                	.insn	2, 0x6f64
    27da:	7420726f          	jal	tp,9f1c <__global_pointer+0x756f>
    27de:	6874206f          	j	45664 <__global_pointer+0x42cb7>
    27e2:	2065                	.insn	2, 0x2065
    27e4:	74756f73          	csrrsi	t5,0x747,10
    27e8:	2068                	.insn	2, 0x2068
    27ea:	7369                	.insn	2, 0x7369
    27ec:	6c20                	.insn	2, 0x6c20
    27ee:	656b636f          	jal	t1,b8e44 <__global_pointer+0xb6497>
    27f2:	2e64                	.insn	2, 0x2e64
    27f4:	5920                	.insn	2, 0x5920
    27f6:	6d20756f          	jal	a0,9ec8 <__global_pointer+0x751b>
    27fa:	7375                	.insn	2, 0x7375
    27fc:	2074                	.insn	2, 0x2074
    27fe:	6564                	.insn	2, 0x6564
    2800:	6566                	.insn	2, 0x6566
    2802:	7461                	.insn	2, 0x7461
    2804:	7420                	.insn	2, 0x7420
    2806:	6568                	.insn	2, 0x6568
    2808:	6220                	.insn	2, 0x6220
    280a:	2073736f          	jal	t1,3a210 <__global_pointer+0x37863>
    280e:	6966                	.insn	2, 0x6966
    2810:	7372                	.insn	2, 0x7372
    2812:	2174                	.insn	2, 0x2174
    2814:	000a                	.insn	2, 0x000a
    2816:	0000                	.insn	2, 0x
    2818:	6854                	.insn	2, 0x6854
    281a:	2065                	.insn	2, 0x2065
    281c:	6f64                	.insn	2, 0x6f64
    281e:	7420726f          	jal	tp,9f60 <__global_pointer+0x75b3>
    2822:	6874206f          	j	456a8 <__global_pointer+0x42cfb>
    2826:	2065                	.insn	2, 0x2065
    2828:	74756f73          	csrrsi	t5,0x747,10
    282c:	2068                	.insn	2, 0x2068
    282e:	7369                	.insn	2, 0x7369
    2830:	6c20                	.insn	2, 0x6c20
    2832:	656b636f          	jal	t1,b8e88 <__global_pointer+0xb64db>
    2836:	2e64                	.insn	2, 0x2e64
    2838:	5920                	.insn	2, 0x5920
    283a:	6e20756f          	jal	a0,9f1c <__global_pointer+0x756f>
    283e:	6565                	.insn	2, 0x6565
    2840:	2064                	.insn	2, 0x2064
    2842:	6874                	.insn	2, 0x6874
    2844:	2065                	.insn	2, 0x2065
    2846:	7865                	.insn	2, 0x7865
    2848:	7469                	.insn	2, 0x7469
    284a:	6420                	.insn	2, 0x6420
    284c:	20726f6f          	jal	t5,29252 <__global_pointer+0x268a5>
    2850:	2179656b          	.insn	4, 0x2179656b
    2854:	000a                	.insn	2, 0x000a
    2856:	0000                	.insn	2, 0x
    2858:	6854                	.insn	2, 0x6854
    285a:	2065                	.insn	2, 0x2065
    285c:	6f64                	.insn	2, 0x6f64
    285e:	7420726f          	jal	tp,9fa0 <__global_pointer+0x75f3>
    2862:	6874206f          	j	456e8 <__global_pointer+0x42d3b>
    2866:	2065                	.insn	2, 0x2065
    2868:	74756f73          	csrrsi	t5,0x747,10
    286c:	2068                	.insn	2, 0x2068
    286e:	7369                	.insn	2, 0x7369
    2870:	7320                	.insn	2, 0x7320
    2872:	6974                	.insn	2, 0x6974
    2874:	6c6c                	.insn	2, 0x6c6c
    2876:	6320                	.insn	2, 0x6320
    2878:	6f6c                	.insn	2, 0x6f6c
    287a:	2e646573          	csrrsi	a0,0x2e6,8
    287e:	5920                	.insn	2, 0x5920
    2880:	6e20756f          	jal	a0,9f62 <__global_pointer+0x75b5>
    2884:	6565                	.insn	2, 0x6565
    2886:	2064                	.insn	2, 0x2064
    2888:	6f74                	.insn	2, 0x6f74
    288a:	6f20                	.insn	2, 0x6f20
    288c:	6570                	.insn	2, 0x6570
    288e:	206e                	.insn	2, 0x206e
    2890:	6874                	.insn	2, 0x6874
    2892:	2065                	.insn	2, 0x2065
    2894:	7865                	.insn	2, 0x7865
    2896:	7469                	.insn	2, 0x7469
    2898:	6420                	.insn	2, 0x6420
    289a:	20726f6f          	jal	t5,292a0 <__global_pointer+0x268f3>
    289e:	6966                	.insn	2, 0x6966
    28a0:	7372                	.insn	2, 0x7372
    28a2:	2174                	.insn	2, 0x2174
    28a4:	000a                	.insn	2, 0x000a
    28a6:	0000                	.insn	2, 0x
    28a8:	6854                	.insn	2, 0x6854
    28aa:	2065                	.insn	2, 0x2065
    28ac:	6f64                	.insn	2, 0x6f64
    28ae:	7420726f          	jal	tp,9ff0 <__global_pointer+0x7643>
    28b2:	6874206f          	j	45738 <__global_pointer+0x42d8b>
    28b6:	2065                	.insn	2, 0x2065
    28b8:	74756f73          	csrrsi	t5,0x747,10
    28bc:	2068                	.insn	2, 0x2068
    28be:	7369                	.insn	2, 0x7369
    28c0:	6c20                	.insn	2, 0x6c20
    28c2:	656b636f          	jal	t1,b8f18 <__global_pointer+0xb656b>
    28c6:	2e64                	.insn	2, 0x2e64
    28c8:	5920                	.insn	2, 0x5920
    28ca:	6e20756f          	jal	a0,9fac <__global_pointer+0x75ff>
    28ce:	6565                	.insn	2, 0x6565
    28d0:	2064                	.insn	2, 0x2064
    28d2:	6874                	.insn	2, 0x6874
    28d4:	2065                	.insn	2, 0x2065
    28d6:	6176                	.insn	2, 0x6176
    28d8:	6c75                	.insn	2, 0x6c75
    28da:	2074                	.insn	2, 0x2074
    28dc:	2179656b          	.insn	4, 0x2179656b
    28e0:	000a                	.insn	2, 0x000a
    28e2:	0000                	.insn	2, 0x
    28e4:	6f59                	.insn	2, 0x6f59
    28e6:	2075                	.insn	2, 0x2075
    28e8:	73206f67          	.insn	4, 0x73206f67
    28ec:	6874756f          	jal	a0,4a772 <__global_pointer+0x47dc5>
    28f0:	0a2e                	.insn	2, 0x0a2e
    28f2:	0000                	.insn	2, 0x
    28f4:	6f59                	.insn	2, 0x6f59
    28f6:	2075                	.insn	2, 0x2075
    28f8:	6e6e6163          	bltu	t3,t1,2fda <__global_pointer+0x62d>
    28fc:	6720746f          	jal	s0,9f6e <__global_pointer+0x75c1>
    2900:	6165206f          	j	54f16 <__global_pointer+0x52569>
    2904:	66207473          	csrrci	s0,0x662,0
    2908:	6f72                	.insn	2, 0x6f72
    290a:	206d                	.insn	2, 0x206d
    290c:	6568                	.insn	2, 0x6568
    290e:	6572                	.insn	2, 0x6572
    2910:	0a2e                	.insn	2, 0x0a2e
    2912:	0000                	.insn	2, 0x
    2914:	6854                	.insn	2, 0x6854
    2916:	2065                	.insn	2, 0x2065
    2918:	6f64                	.insn	2, 0x6f64
    291a:	7420726f          	jal	tp,a05c <__global_pointer+0x76af>
    291e:	6874206f          	j	457a4 <__global_pointer+0x42df7>
    2922:	2065                	.insn	2, 0x2065
    2924:	6165                	.insn	2, 0x6165
    2926:	69207473          	csrrci	s0,0x692,0
    292a:	6f6c2073          	csrs	0x6f6,s8
    292e:	64656b63          	bltu	a0,t1,2f84 <__global_pointer+0x5d7>
    2932:	202e                	.insn	2, 0x202e
    2934:	6f59                	.insn	2, 0x6f59
    2936:	2075                	.insn	2, 0x2075
    2938:	656e                	.insn	2, 0x656e
    293a:	6465                	.insn	2, 0x6465
    293c:	7420                	.insn	2, 0x7420
    293e:	6568                	.insn	2, 0x6568
    2940:	6220                	.insn	2, 0x6220
    2942:	2073736f          	jal	t1,3a348 <__global_pointer+0x3799b>
    2946:	6f72                	.insn	2, 0x6f72
    2948:	6b206d6f          	jal	s10,8ffa <__global_pointer+0x664d>
    294c:	7965                	.insn	2, 0x7965
    294e:	0a21                	.insn	2, 0x0a21
    2950:	0000                	.insn	2, 0x
    2952:	0000                	.insn	2, 0x
    2954:	6f59                	.insn	2, 0x6f59
    2956:	2075                	.insn	2, 0x2075
    2958:	65206f67          	.insn	4, 0x65206f67
    295c:	7361                	.insn	2, 0x7361
    295e:	2e74                	.insn	2, 0x2e74
    2960:	000a                	.insn	2, 0x000a
    2962:	0000                	.insn	2, 0x
    2964:	6f59                	.insn	2, 0x6f59
    2966:	2075                	.insn	2, 0x2075
    2968:	6e6e6163          	bltu	t3,t1,304a <__global_pointer+0x69d>
    296c:	6720746f          	jal	s0,9fde <__global_pointer+0x7631>
    2970:	6577206f          	j	757c6 <__global_pointer+0x72e19>
    2974:	66207473          	csrrci	s0,0x662,0
    2978:	6f72                	.insn	2, 0x6f72
    297a:	206d                	.insn	2, 0x206d
    297c:	6568                	.insn	2, 0x6568
    297e:	6572                	.insn	2, 0x6572
    2980:	0a2e                	.insn	2, 0x0a2e
    2982:	0000                	.insn	2, 0x
    2984:	6f59                	.insn	2, 0x6f59
    2986:	2075                	.insn	2, 0x2075
    2988:	77206f67          	.insn	4, 0x77206f67
    298c:	7365                	.insn	2, 0x7365
    298e:	2e74                	.insn	2, 0x2e74
    2990:	000a                	.insn	2, 0x000a
    2992:	0000                	.insn	2, 0x
    2994:	6f59                	.insn	2, 0x6f59
    2996:	2075                	.insn	2, 0x2075
    2998:	20656573          	csrrsi	a0,0x206,10
    299c:	2061                	.insn	2, 0x2061
    299e:	61727473          	csrrci	s0,0x617,4
    29a2:	676e                	.insn	2, 0x676e
    29a4:	2065                	.insn	2, 0x2065
    29a6:	6974                	.insn	2, 0x6974
    29a8:	656d                	.insn	2, 0x656d
    29aa:	2072                	.insn	2, 0x2072
    29ac:	6564                	.insn	2, 0x6564
    29ae:	6976                	.insn	2, 0x6976
    29b0:	69206563          	bltu	zero,s2,303a <__global_pointer+0x68d>
    29b4:	206e                	.insn	2, 0x206e
    29b6:	6874                	.insn	2, 0x6874
    29b8:	2065                	.insn	2, 0x2065
    29ba:	746e6563          	bltu	t3,t1,3104 <__global_pointer+0x757>
    29be:	7265                	.insn	2, 0x7265
    29c0:	6f20                	.insn	2, 0x6f20
    29c2:	2066                	.insn	2, 0x2066
    29c4:	6874                	.insn	2, 0x6874
    29c6:	2065                	.insn	2, 0x2065
    29c8:	6f72                	.insn	2, 0x6f72
    29ca:	0a2e6d6f          	jal	s10,e8a6c <__global_pointer+0xe60bf>
    29ce:	0000                	.insn	2, 0x
    29d0:	7250                	.insn	2, 0x7250
    29d2:	7365                	.insn	2, 0x7365
    29d4:	75622073          	csrs	0x756,tp
    29d8:	7474                	.insn	2, 0x7474
    29da:	69206e6f          	jal	t3,906c <__global_pointer+0x66bf>
    29de:	2066                	.insn	2, 0x2066
    29e0:	6f79                	.insn	2, 0x6f79
    29e2:	2075                	.insn	2, 0x2075
    29e4:	746e6177          	.insn	4, 0x746e6177
    29e8:	7420                	.insn	2, 0x7420
    29ea:	7461206f          	j	15130 <__global_pointer+0x12783>
    29ee:	6574                	.insn	2, 0x6574
    29f0:	706d                	.insn	2, 0x706d
    29f2:	2074                	.insn	2, 0x2074
    29f4:	6874                	.insn	2, 0x6874
    29f6:	2065                	.insn	2, 0x2065
    29f8:	6572                	.insn	2, 0x6572
    29fa:	6361                	.insn	2, 0x6361
    29fc:	6974                	.insn	2, 0x6974
    29fe:	63206e6f          	jal	t3,9030 <__global_pointer+0x6683>
    2a02:	6168                	.insn	2, 0x6168
    2a04:	6c6c                	.insn	2, 0x6c6c
    2a06:	6e65                	.insn	2, 0x6e65
    2a08:	0a2e6567          	.insn	4, 0x0a2e6567
    2a0c:	0000                	.insn	2, 0x
    2a0e:	0000                	.insn	2, 0x
    2a10:	6552                	.insn	2, 0x6552
    2a12:	6361                	.insn	2, 0x6361
    2a14:	6974                	.insn	2, 0x6974
    2a16:	43206e6f          	jal	t3,8e48 <__global_pointer+0x649b>
    2a1a:	6168                	.insn	2, 0x6168
    2a1c:	6c6c                	.insn	2, 0x6c6c
    2a1e:	6e65                	.insn	2, 0x6e65
    2a20:	49206567          	.insn	4, 0x49206567
    2a24:	736e                	.insn	2, 0x736e
    2a26:	7274                	.insn	2, 0x7274
    2a28:	6375                	.insn	2, 0x6375
    2a2a:	6974                	.insn	2, 0x6974
    2a2c:	3a736e6f          	jal	t3,395d2 <__global_pointer+0x36c25>
    2a30:	000a                	.insn	2, 0x000a
    2a32:	0000                	.insn	2, 0x
    2a34:	2e31                	.insn	2, 0x2e31
    2a36:	5720                	.insn	2, 0x5720
    2a38:	6961                	.insn	2, 0x6961
    2a3a:	2074                	.insn	2, 0x2074
    2a3c:	6f66                	.insn	2, 0x6f66
    2a3e:	2072                	.insn	2, 0x2072
    2a40:	454c                	.insn	2, 0x454c
    2a42:	7344                	.insn	2, 0x7344
    2a44:	7420                	.insn	2, 0x7420
    2a46:	7574206f          	j	4599c <__global_pointer+0x42fef>
    2a4a:	6e72                	.insn	2, 0x6e72
    2a4c:	6f20                	.insn	2, 0x6f20
    2a4e:	0a6e                	.insn	2, 0x0a6e
    2a50:	0000                	.insn	2, 0x
    2a52:	0000                	.insn	2, 0x
    2a54:	2e32                	.insn	2, 0x2e32
    2a56:	5020                	.insn	2, 0x5020
    2a58:	6572                	.insn	2, 0x6572
    2a5a:	62207373          	csrrci	t1,0x622,0
    2a5e:	7475                	.insn	2, 0x7475
    2a60:	6f74                	.insn	2, 0x6f74
    2a62:	206e                	.insn	2, 0x206e
    2a64:	7361                	.insn	2, 0x7361
    2a66:	4620                	.insn	2, 0x4620
    2a68:	5341                	.insn	2, 0x5341
    2a6a:	2054                	.insn	2, 0x2054
    2a6c:	7361                	.insn	2, 0x7361
    2a6e:	7020                	.insn	2, 0x7020
    2a70:	6973736f          	jal	t1,3a906 <__global_pointer+0x37f59>
    2a74:	6c62                	.insn	2, 0x6c62
    2a76:	0a65                	.insn	2, 0x0a65
    2a78:	0000                	.insn	2, 0x
    2a7a:	0000                	.insn	2, 0x
    2a7c:	59202e33          	.insn	4, 0x59202e33
    2a80:	6d20756f          	jal	a0,a152 <__global_pointer+0x77a5>
    2a84:	7375                	.insn	2, 0x7375
    2a86:	2074                	.insn	2, 0x2074
    2a88:	6572                	.insn	2, 0x6572
    2a8a:	6361                	.insn	2, 0x6361
    2a8c:	2074                	.insn	2, 0x2074
    2a8e:	6166                	.insn	2, 0x6166
    2a90:	72657473          	csrrci	s0,mhpmevent6h,10
    2a94:	7420                	.insn	2, 0x7420
    2a96:	6168                	.insn	2, 0x6168
    2a98:	206e                	.insn	2, 0x206e
    2a9a:	6d303033          	.insn	4, 0x6d303033
    2a9e:	6f742073          	csrs	0x6f7,s0
    2aa2:	7020                	.insn	2, 0x7020
    2aa4:	7361                	.insn	2, 0x7361
    2aa6:	45282073          	csrs	0x452,a6
    2aaa:	7361                	.insn	2, 0x7361
    2aac:	2979                	.insn	2, 0x2979
    2aae:	000a                	.insn	2, 0x000a
    2ab0:	59202e33          	.insn	4, 0x59202e33
    2ab4:	6d20756f          	jal	a0,a186 <__global_pointer+0x77d9>
    2ab8:	7375                	.insn	2, 0x7375
    2aba:	2074                	.insn	2, 0x2074
    2abc:	6572                	.insn	2, 0x6572
    2abe:	6361                	.insn	2, 0x6361
    2ac0:	2074                	.insn	2, 0x2074
    2ac2:	6166                	.insn	2, 0x6166
    2ac4:	72657473          	csrrci	s0,mhpmevent6h,10
    2ac8:	7420                	.insn	2, 0x7420
    2aca:	6168                	.insn	2, 0x6168
    2acc:	206e                	.insn	2, 0x206e
    2ace:	3532                	.insn	2, 0x3532
    2ad0:	6d30                	.insn	2, 0x6d30
    2ad2:	6f742073          	csrs	0x6f7,s0
    2ad6:	7020                	.insn	2, 0x7020
    2ad8:	7361                	.insn	2, 0x7361
    2ada:	4d282073          	csrs	0x4d2,a6
    2ade:	6465                	.insn	2, 0x6465
    2ae0:	7569                	.insn	2, 0x7569
    2ae2:	296d                	.insn	2, 0x296d
    2ae4:	000a                	.insn	2, 0x000a
    2ae6:	0000                	.insn	2, 0x
    2ae8:	59202e33          	.insn	4, 0x59202e33
    2aec:	6d20756f          	jal	a0,a1be <__global_pointer+0x7811>
    2af0:	7375                	.insn	2, 0x7375
    2af2:	2074                	.insn	2, 0x2074
    2af4:	6572                	.insn	2, 0x6572
    2af6:	6361                	.insn	2, 0x6361
    2af8:	2074                	.insn	2, 0x2074
    2afa:	6166                	.insn	2, 0x6166
    2afc:	72657473          	csrrci	s0,mhpmevent6h,10
    2b00:	7420                	.insn	2, 0x7420
    2b02:	6168                	.insn	2, 0x6168
    2b04:	206e                	.insn	2, 0x206e
    2b06:	3731                	.insn	2, 0x3731
    2b08:	6d35                	.insn	2, 0x6d35
    2b0a:	6f742073          	csrs	0x6f7,s0
    2b0e:	7020                	.insn	2, 0x7020
    2b10:	7361                	.insn	2, 0x7361
    2b12:	48282073          	csrs	0x482,a6
    2b16:	7261                	.insn	2, 0x7261
    2b18:	2964                	.insn	2, 0x2964
    2b1a:	000a                	.insn	2, 0x000a
    2b1c:	59202e33          	.insn	4, 0x59202e33
    2b20:	6d20756f          	jal	a0,a1f2 <__global_pointer+0x7845>
    2b24:	7375                	.insn	2, 0x7375
    2b26:	2074                	.insn	2, 0x2074
    2b28:	6572                	.insn	2, 0x6572
    2b2a:	6361                	.insn	2, 0x6361
    2b2c:	2074                	.insn	2, 0x2074
    2b2e:	6166                	.insn	2, 0x6166
    2b30:	72657473          	csrrci	s0,mhpmevent6h,10
    2b34:	7420                	.insn	2, 0x7420
    2b36:	6168                	.insn	2, 0x6168
    2b38:	206e                	.insn	2, 0x206e
    2b3a:	3532                	.insn	2, 0x3532
    2b3c:	6d30                	.insn	2, 0x6d30
    2b3e:	6f742073          	csrs	0x6f7,s0
    2b42:	7020                	.insn	2, 0x7020
    2b44:	7361                	.insn	2, 0x7361
    2b46:	44282073          	csrs	0x442,a6
    2b4a:	6665                	.insn	2, 0x6665
    2b4c:	7561                	.insn	2, 0x7561
    2b4e:	746c                	.insn	2, 0x746c
    2b50:	0a29                	.insn	2, 0x0a29
    2b52:	0000                	.insn	2, 0x
    2b54:	2e34                	.insn	2, 0x2e34
    2b56:	5920                	.insn	2, 0x5920
    2b58:	6320756f          	jal	a0,a18a <__global_pointer+0x77dd>
    2b5c:	6e61                	.insn	2, 0x6e61
    2b5e:	7420                	.insn	2, 0x7420
    2b60:	7972                	.insn	2, 0x7972
    2b62:	6d20                	.insn	2, 0x6d20
    2b64:	6c75                	.insn	2, 0x6c75
    2b66:	6974                	.insn	2, 0x6974
    2b68:	6c70                	.insn	2, 0x6c70
    2b6a:	2065                	.insn	2, 0x2065
    2b6c:	6974                	.insn	2, 0x6974
    2b6e:	656d                	.insn	2, 0x656d
    2b70:	66692073          	csrs	0x666,s2
    2b74:	7920                	.insn	2, 0x7920
    2b76:	6620756f          	jal	a0,a1d8 <__global_pointer+0x782b>
    2b7a:	6961                	.insn	2, 0x6961
    2b7c:	0a6c                	.insn	2, 0x0a6c
    2b7e:	0000                	.insn	2, 0x
    2b80:	7250                	.insn	2, 0x7250
    2b82:	7365                	.insn	2, 0x7365
    2b84:	75622073          	csrs	0x756,tp
    2b88:	7474                	.insn	2, 0x7474
    2b8a:	74206e6f          	jal	t3,92cc <__global_pointer+0x691f>
    2b8e:	7473206f          	j	35ad4 <__global_pointer+0x33127>
    2b92:	7261                	.insn	2, 0x7261
    2b94:	2074                	.insn	2, 0x2074
    2b96:	6874                	.insn	2, 0x6874
    2b98:	2065                	.insn	2, 0x2065
    2b9a:	6c616863          	bltu	sp,t1,326a <__global_pointer+0x8bd>
    2b9e:	656c                	.insn	2, 0x656c
    2ba0:	676e                	.insn	2, 0x676e
    2ba2:	2165                	.insn	2, 0x2165
    2ba4:	000a                	.insn	2, 0x000a
    2ba6:	0000                	.insn	2, 0x
    2ba8:	20746547          	.insn	4, 0x20746547
    2bac:	6572                	.insn	2, 0x6572
    2bae:	6461                	.insn	2, 0x6461
    2bb0:	2e79                	.insn	2, 0x2e79
    2bb2:	2e2e                	.insn	2, 0x2e2e
    2bb4:	5420                	.insn	2, 0x5420
    2bb6:	6568                	.insn	2, 0x6568
    2bb8:	6320                	.insn	2, 0x6320
    2bba:	6168                	.insn	2, 0x6168
    2bbc:	6c6c                	.insn	2, 0x6c6c
    2bbe:	6e65                	.insn	2, 0x6e65
    2bc0:	77206567          	.insn	4, 0x77206567
    2bc4:	6c69                	.insn	2, 0x6c69
    2bc6:	206c                	.insn	2, 0x206c
    2bc8:	72617473          	csrrci	s0,mhpmevent6h,2
    2bcc:	2074                	.insn	2, 0x2074
    2bce:	6e69                	.insn	2, 0x6e69
    2bd0:	3320                	.insn	2, 0x3320
    2bd2:	7320                	.insn	2, 0x7320
    2bd4:	6365                	.insn	2, 0x6365
    2bd6:	73646e6f          	jal	t3,4930c <__global_pointer+0x4695f>
    2bda:	0a21                	.insn	2, 0x0a21
    2bdc:	0000                	.insn	2, 0x
    2bde:	0000                	.insn	2, 0x
    2be0:	0a214f47          	.insn	4, 0x0a214f47
    2be4:	0000                	.insn	2, 0x
    2be6:	0000                	.insn	2, 0x
    2be8:	6552                	.insn	2, 0x6552
    2bea:	6361                	.insn	2, 0x6361
    2bec:	6974                	.insn	2, 0x6974
    2bee:	74206e6f          	jal	t3,9330 <__global_pointer+0x6983>
    2bf2:	6d69                	.insn	2, 0x6d69
    2bf4:	3a65                	.insn	2, 0x3a65
    2bf6:	0020                	.insn	2, 0x0020
    2bf8:	6d20                	.insn	2, 0x6d20
    2bfa:	00000a73          	.insn	4, 0x0a73
    2bfe:	0000                	.insn	2, 0x
    2c00:	70737553          	.insn	4, 0x70737553
    2c04:	6369                	.insn	2, 0x6369
    2c06:	6f69                	.insn	2, 0x6f69
    2c08:	7375                	.insn	2, 0x7375
    2c0a:	796c                	.insn	2, 0x796c
    2c0c:	6620                	.insn	2, 0x6620
    2c0e:	7361                	.insn	2, 0x7361
    2c10:	2174                	.insn	2, 0x2174
    2c12:	5420                	.insn	2, 0x5420
    2c14:	6168                	.insn	2, 0x6168
    2c16:	2774                	.insn	2, 0x2774
    2c18:	6d692073          	csrs	0x6d6,s2
    2c1c:	6f70                	.insn	2, 0x6f70
    2c1e:	62697373          	csrrci	t1,0x626,18
    2c22:	656c                	.insn	2, 0x656c
    2c24:	6620                	.insn	2, 0x6620
    2c26:	6120726f          	jal	tp,a238 <__global_pointer+0x788b>
    2c2a:	6820                	.insn	2, 0x6820
    2c2c:	6d75                	.insn	2, 0x6d75
    2c2e:	6e61                	.insn	2, 0x6e61
    2c30:	7220                	.insn	2, 0x7220
    2c32:	6165                	.insn	2, 0x6165
    2c34:	6f697463          	bgeu	s2,s6,331c <__global_pointer+0x96f>
    2c38:	2e6e                	.insn	2, 0x2e6e
    2c3a:	000a                	.insn	2, 0x000a
    2c3c:	6f59                	.insn	2, 0x6f59
    2c3e:	2075                	.insn	2, 0x2075
    2c40:	756d                	.insn	2, 0x756d
    2c42:	68207473          	csrrci	s0,0x682,0
    2c46:	7661                	.insn	2, 0x7661
    2c48:	2065                	.insn	2, 0x2065
    2c4a:	61656863          	bltu	a0,s6,325a <__global_pointer+0x8ad>
    2c4e:	6574                	.insn	2, 0x6574
    2c50:	2e64                	.insn	2, 0x2e64
    2c52:	5420                	.insn	2, 0x5420
    2c54:	7972                	.insn	2, 0x7972
    2c56:	6120                	.insn	2, 0x6120
    2c58:	6e696167          	.insn	4, 0x6e696167
    2c5c:	0a21                	.insn	2, 0x0a21
    2c5e:	0000                	.insn	2, 0x
    2c60:	7845                	.insn	2, 0x7845
    2c62:	6c6c6563          	bltu	s8,t1,332c <__global_pointer+0x97f>
    2c66:	6e65                	.insn	2, 0x6e65
    2c68:	2174                	.insn	2, 0x2174
    2c6a:	5920                	.insn	2, 0x5920
    2c6c:	7020756f          	jal	a0,a36e <__global_pointer+0x79c1>
    2c70:	7361                	.insn	2, 0x7361
    2c72:	20646573          	csrrsi	a0,0x206,8
    2c76:	6874                	.insn	2, 0x6874
    2c78:	2065                	.insn	2, 0x2065
    2c7a:	6572                	.insn	2, 0x6572
    2c7c:	6361                	.insn	2, 0x6361
    2c7e:	6974                	.insn	2, 0x6974
    2c80:	74206e6f          	jal	t3,93c2 <__global_pointer+0x6a15>
    2c84:	7365                	.insn	2, 0x7365
    2c86:	2174                	.insn	2, 0x2174
    2c88:	000a                	.insn	2, 0x000a
    2c8a:	0000                	.insn	2, 0x
    2c8c:	6f54                	.insn	2, 0x6f54
    2c8e:	6c73206f          	j	35b54 <__global_pointer+0x331a7>
    2c92:	2021776f          	jal	a4,19e94 <__global_pointer+0x174e7>
    2c96:	6f59                	.insn	2, 0x6f59
    2c98:	2075                	.insn	2, 0x2075
    2c9a:	656e                	.insn	2, 0x656e
    2c9c:	6465                	.insn	2, 0x6465
    2c9e:	7420                	.insn	2, 0x7420
    2ca0:	6572206f          	j	25af6 <__global_pointer+0x23149>
    2ca4:	6361                	.insn	2, 0x6361
    2ca6:	2074                	.insn	2, 0x2074
    2ca8:	6166                	.insn	2, 0x6166
    2caa:	72657473          	csrrci	s0,mhpmevent6h,10
    2cae:	7420                	.insn	2, 0x7420
    2cb0:	6168                	.insn	2, 0x6168
    2cb2:	206e                	.insn	2, 0x206e
    2cb4:	0000                	.insn	2, 0x
    2cb6:	0000                	.insn	2, 0x
    2cb8:	736d                	.insn	2, 0x736d
    2cba:	0a2e                	.insn	2, 0x0a2e
    2cbc:	0000                	.insn	2, 0x
    2cbe:	0000                	.insn	2, 0x
    2cc0:	7250                	.insn	2, 0x7250
    2cc2:	7365                	.insn	2, 0x7365
    2cc4:	75622073          	csrs	0x756,tp
    2cc8:	7474                	.insn	2, 0x7474
    2cca:	69206e6f          	jal	t3,935c <__global_pointer+0x69af>
    2cce:	2066                	.insn	2, 0x2066
    2cd0:	6f79                	.insn	2, 0x6f79
    2cd2:	2075                	.insn	2, 0x2075
    2cd4:	746e6177          	.insn	4, 0x746e6177
    2cd8:	7420                	.insn	2, 0x7420
    2cda:	7461206f          	j	15420 <__global_pointer+0x12a73>
    2cde:	6574                	.insn	2, 0x6574
    2ce0:	706d                	.insn	2, 0x706d
    2ce2:	2074                	.insn	2, 0x2074
    2ce4:	6874                	.insn	2, 0x6874
    2ce6:	2065                	.insn	2, 0x2065
    2ce8:	656d                	.insn	2, 0x656d
    2cea:	6f6d                	.insn	2, 0x6f6d
    2cec:	7972                	.insn	2, 0x7972
    2cee:	6320                	.insn	2, 0x6320
    2cf0:	6168                	.insn	2, 0x6168
    2cf2:	6c6c                	.insn	2, 0x6c6c
    2cf4:	6e65                	.insn	2, 0x6e65
    2cf6:	66206567          	.insn	4, 0x66206567
    2cfa:	6120726f          	jal	tp,a30c <__global_pointer+0x795f>
    2cfe:	6b20                	.insn	2, 0x6b20
    2d00:	7965                	.insn	2, 0x7965
    2d02:	0a2e                	.insn	2, 0x0a2e
    2d04:	0000                	.insn	2, 0x
    2d06:	0000                	.insn	2, 0x
    2d08:	654d                	.insn	2, 0x654d
    2d0a:	6f6d                	.insn	2, 0x6f6d
    2d0c:	7972                	.insn	2, 0x7972
    2d0e:	4320                	.insn	2, 0x4320
    2d10:	6168                	.insn	2, 0x6168
    2d12:	6c6c                	.insn	2, 0x6c6c
    2d14:	6e65                	.insn	2, 0x6e65
    2d16:	49206567          	.insn	4, 0x49206567
    2d1a:	736e                	.insn	2, 0x736e
    2d1c:	7274                	.insn	2, 0x7274
    2d1e:	6375                	.insn	2, 0x6375
    2d20:	6974                	.insn	2, 0x6974
    2d22:	3a736e6f          	jal	t3,398c8 <__global_pointer+0x36f1b>
    2d26:	000a                	.insn	2, 0x000a
    2d28:	2e31                	.insn	2, 0x2e31
    2d2a:	5720                	.insn	2, 0x5720
    2d2c:	7461                	.insn	2, 0x7461
    2d2e:	74206863          	bltu	zero,sp,347e <__global_pointer+0xad1>
    2d32:	6568                	.insn	2, 0x6568
    2d34:	4c20                	.insn	2, 0x4c20
    2d36:	4445                	.insn	2, 0x4445
    2d38:	7020                	.insn	2, 0x7020
    2d3a:	7461                	.insn	2, 0x7461
    2d3c:	6574                	.insn	2, 0x6574
    2d3e:	6e72                	.insn	2, 0x6e72
    2d40:	6320                	.insn	2, 0x6320
    2d42:	7261                	.insn	2, 0x7261
    2d44:	6665                	.insn	2, 0x6665
    2d46:	6c75                	.insn	2, 0x6c75
    2d48:	796c                	.insn	2, 0x796c
    2d4a:	000a                	.insn	2, 0x000a
    2d4c:	2e32                	.insn	2, 0x2e32
    2d4e:	5320                	.insn	2, 0x5320
    2d50:	7465                	.insn	2, 0x7465
    2d52:	7320                	.insn	2, 0x7320
    2d54:	63746977          	.insn	4, 0x63746977
    2d58:	6568                	.insn	2, 0x6568
    2d5a:	57532073          	csrs	0x575,t1
    2d5e:	2d30                	.insn	2, 0x2d30
    2d60:	20395753          	.insn	4, 0x20395753
    2d64:	6f74                	.insn	2, 0x6f74
    2d66:	6d20                	.insn	2, 0x6d20
    2d68:	7461                	.insn	2, 0x7461
    2d6a:	74206863          	bltu	zero,sp,34ba <__global_pointer+0xb0d>
    2d6e:	6568                	.insn	2, 0x6568
    2d70:	7020                	.insn	2, 0x7020
    2d72:	7461                	.insn	2, 0x7461
    2d74:	6574                	.insn	2, 0x6574
    2d76:	6e72                	.insn	2, 0x6e72
    2d78:	000a                	.insn	2, 0x000a
    2d7a:	0000                	.insn	2, 0x
    2d7c:	50202e33          	.insn	4, 0x50202e33
    2d80:	6572                	.insn	2, 0x6572
    2d82:	62207373          	csrrci	t1,0x622,0
    2d86:	7475                	.insn	2, 0x7475
    2d88:	6f74                	.insn	2, 0x6f74
    2d8a:	206e                	.insn	2, 0x206e
    2d8c:	6e656877          	.insn	4, 0x6e656877
    2d90:	7920                	.insn	2, 0x7920
    2d92:	7227756f          	jal	a0,7a4b4 <__global_pointer+0x77b07>
    2d96:	2065                	.insn	2, 0x2065
    2d98:	6572                	.insn	2, 0x6572
    2d9a:	6461                	.insn	2, 0x6461
    2d9c:	0a79                	.insn	2, 0x0a79
    2d9e:	0000                	.insn	2, 0x
    2da0:	654d                	.insn	2, 0x654d
    2da2:	6f6d                	.insn	2, 0x6f6d
    2da4:	6972                	.insn	2, 0x6972
    2da6:	657a                	.insn	2, 0x657a
    2da8:	7420                	.insn	2, 0x7420
    2daa:	6968                	.insn	2, 0x6968
    2dac:	61702073          	csrr	zero,0x617
    2db0:	7474                	.insn	2, 0x7474
    2db2:	7265                	.insn	2, 0x7265
    2db4:	216e                	.insn	2, 0x216e
    2db6:	000a                	.insn	2, 0x000a
    2db8:	776f6853          	.insn	4, 0x776f6853
    2dbc:	6e69                	.insn	2, 0x6e69
    2dbe:	61702067          	.insn	4, 0x61702067
    2dc2:	7474                	.insn	2, 0x7474
    2dc4:	7265                	.insn	2, 0x7265
    2dc6:	2e6e                	.insn	2, 0x2e6e
    2dc8:	2e2e                	.insn	2, 0x2e2e
    2dca:	0a20                	.insn	2, 0x0a20
    2dcc:	0000                	.insn	2, 0x
    2dce:	0000                	.insn	2, 0x
    2dd0:	6552                	.insn	2, 0x6552
    2dd2:	6570                	.insn	2, 0x6570
    2dd4:	7461                	.insn	2, 0x7461
    2dd6:	7420                	.insn	2, 0x7420
    2dd8:	6568                	.insn	2, 0x6568
    2dda:	7020                	.insn	2, 0x7020
    2ddc:	7461                	.insn	2, 0x7461
    2dde:	6574                	.insn	2, 0x6574
    2de0:	6e72                	.insn	2, 0x6e72
    2de2:	7520                	.insn	2, 0x7520
    2de4:	676e6973          	csrrsi	s2,0x676,28
    2de8:	7420                	.insn	2, 0x7420
    2dea:	6568                	.insn	2, 0x6568
    2dec:	7320                	.insn	2, 0x7320
    2dee:	63746977          	.insn	4, 0x63746977
    2df2:	6568                	.insn	2, 0x6568
    2df4:	53282073          	csrs	0x532,a6
    2df8:	532d3057          	.insn	4, 0x532d3057
    2dfc:	2c293957          	.insn	4, 0x2c293957
    2e00:	7020                	.insn	2, 0x7020
    2e02:	6572                	.insn	2, 0x6572
    2e04:	62207373          	csrrci	t1,0x622,0
    2e08:	7475                	.insn	2, 0x7475
    2e0a:	6f74                	.insn	2, 0x6f74
    2e0c:	206e                	.insn	2, 0x206e
    2e0e:	6e656877          	.insn	4, 0x6e656877
    2e12:	7920                	.insn	2, 0x7920
    2e14:	6820756f          	jal	a0,a496 <__global_pointer+0x7ae9>
    2e18:	7661                	.insn	2, 0x7661
    2e1a:	2065                	.insn	2, 0x2065
    2e1c:	6966                	.insn	2, 0x6966
    2e1e:	696e                	.insn	2, 0x696e
    2e20:	64656873          	csrrsi	a6,hviprio1,10
    2e24:	0a2e                	.insn	2, 0x0a2e
    2e26:	0000                	.insn	2, 0x
    2e28:	72726f43          	.insn	4, 0x72726f43
    2e2c:	6365                	.insn	2, 0x6365
    2e2e:	2174                	.insn	2, 0x2174
    2e30:	4d20                	.insn	2, 0x4d20
    2e32:	6d65                	.insn	2, 0x6d65
    2e34:	2079726f          	jal	tp,9a83a <__global_pointer+0x97e8d>
    2e38:	6c616863          	bltu	sp,t1,3508 <__global_pointer+0xb5b>
    2e3c:	656c                	.insn	2, 0x656c
    2e3e:	676e                	.insn	2, 0x676e
    2e40:	2065                	.insn	2, 0x2065
    2e42:	706d6f63          	bltu	s10,t1,3560 <__global_pointer+0xbb3>
    2e46:	656c                	.insn	2, 0x656c
    2e48:	6574                	.insn	2, 0x6574
    2e4a:	2164                	.insn	2, 0x2164
    2e4c:	000a                	.insn	2, 0x000a
    2e4e:	0000                	.insn	2, 0x
    2e50:	6e49                	.insn	2, 0x6e49
    2e52:	72726f63          	bltu	tp,t2,3590 <__global_pointer+0xbe3>
    2e56:	6365                	.insn	2, 0x6365
    2e58:	2174                	.insn	2, 0x2174
    2e5a:	5420                	.insn	2, 0x5420
    2e5c:	7972                	.insn	2, 0x7972
    2e5e:	6120                	.insn	2, 0x6120
    2e60:	6e696167          	.insn	4, 0x6e696167
    2e64:	0a2e                	.insn	2, 0x0a2e
    2e66:	0000                	.insn	2, 0x
    2e68:	6f59                	.insn	2, 0x6f59
    2e6a:	2075                	.insn	2, 0x2075
    2e6c:	20656573          	csrrsi	a0,0x206,10
    2e70:	2061                	.insn	2, 0x2061
    2e72:	6176                	.insn	2, 0x6176
    2e74:	6c75                	.insn	2, 0x6c75
    2e76:	2074                	.insn	2, 0x2074
    2e78:	68746977          	.insn	4, 0x68746977
    2e7c:	3620                	.insn	2, 0x3620
    2e7e:	6720                	.insn	2, 0x6720
    2e80:	6f6c                	.insn	2, 0x6f6c
    2e82:	676e6977          	.insn	4, 0x676e6977
    2e86:	3720                	.insn	2, 0x3720
    2e88:	732d                	.insn	2, 0x732d
    2e8a:	6765                	.insn	2, 0x6765
    2e8c:	656d                	.insn	2, 0x656d
    2e8e:	746e                	.insn	2, 0x746e
    2e90:	6420                	.insn	2, 0x6420
    2e92:	7369                	.insn	2, 0x7369
    2e94:	6c70                	.insn	2, 0x6c70
    2e96:	7961                	.insn	2, 0x7961
    2e98:	000a2e73          	csrrs	t3,ustatus,s4
    2e9c:	6854                	.insn	2, 0x6854
    2e9e:	2065                	.insn	2, 0x2065
    2ea0:	6964                	.insn	2, 0x6964
    2ea2:	616c7073          	csrci	0x616,24
    2ea6:	7379                	.insn	2, 0x7379
    2ea8:	7320                	.insn	2, 0x7320
    2eaa:	6f68                	.insn	2, 0x6f68
    2eac:	20612077          	.insn	4, 0x20612077
    2eb0:	65646f63          	bltu	s0,s6,350e <__global_pointer+0xb61>
    2eb4:	203a                	.insn	2, 0x203a
    2eb6:	2d372d33          	.insn	4, 0x2d372d33
    2eba:	2d32                	.insn	2, 0x2d32
    2ebc:	2d39                	.insn	2, 0x2d39
    2ebe:	2d31                	.insn	2, 0x2d31
    2ec0:	0a35                	.insn	2, 0x0a35
    2ec2:	0000                	.insn	2, 0x
    2ec4:	6e45                	.insn	2, 0x6e45
    2ec6:	6574                	.insn	2, 0x6574
    2ec8:	2072                	.insn	2, 0x2072
    2eca:	6165                	.insn	2, 0x6165
    2ecc:	64206863          	bltu	zero,sp,351c <__global_pointer+0xb6f>
    2ed0:	6769                	.insn	2, 0x6769
    2ed2:	7469                	.insn	2, 0x7469
    2ed4:	7520                	.insn	2, 0x7520
    2ed6:	676e6973          	csrrsi	s2,0x676,28
    2eda:	7320                	.insn	2, 0x7320
    2edc:	63746977          	.insn	4, 0x63746977
    2ee0:	6568                	.insn	2, 0x6568
    2ee2:	57532073          	csrs	0x575,t1
    2ee6:	2d36                	.insn	2, 0x2d36
    2ee8:	20395753          	.insn	4, 0x20395753
    2eec:	6e69                	.insn	2, 0x6e69
    2eee:	6220                	.insn	2, 0x6220
    2ef0:	6e69                	.insn	2, 0x6e69
    2ef2:	7261                	.insn	2, 0x7261
    2ef4:	3a79                	.insn	2, 0x3a79
    2ef6:	000a                	.insn	2, 0x000a
    2ef8:	3d365753          	.insn	4, 0x3d365753
    2efc:	2c31                	.insn	2, 0x2c31
    2efe:	5320                	.insn	2, 0x5320
    2f00:	323d3757          	.insn	4, 0x323d3757
    2f04:	202c                	.insn	2, 0x202c
    2f06:	3d385753          	.insn	4, 0x3d385753
    2f0a:	2c34                	.insn	2, 0x2c34
    2f0c:	5320                	.insn	2, 0x5320
    2f0e:	383d3957          	.insn	4, 0x383d3957
    2f12:	000a                	.insn	2, 0x000a
    2f14:	626d6f43          	.insn	4, 0x626d6f43
    2f18:	6e69                	.insn	2, 0x6e69
    2f1a:	2065                	.insn	2, 0x2065
    2f1c:	74697773          	csrrci	a4,0x746,18
    2f20:	73656863          	bltu	a0,s6,3650 <__global_pointer+0xca3>
    2f24:	7420                	.insn	2, 0x7420
    2f26:	616d206f          	j	d553c <__global_pointer+0xd2b8f>
    2f2a:	6520656b          	.insn	4, 0x6520656b
    2f2e:	6361                	.insn	2, 0x6361
    2f30:	2068                	.insn	2, 0x2068
    2f32:	6964                	.insn	2, 0x6964
    2f34:	20746967          	.insn	4, 0x20746967
    2f38:	3028                	.insn	2, 0x3028
    2f3a:	392d                	.insn	2, 0x392d
    2f3c:	2e29                	.insn	2, 0x2e29
    2f3e:	000a                	.insn	2, 0x000a
    2f40:	7250                	.insn	2, 0x7250
    2f42:	7365                	.insn	2, 0x7365
    2f44:	75622073          	csrs	0x756,tp
    2f48:	7474                	.insn	2, 0x7474
    2f4a:	61206e6f          	jal	t3,955c <__global_pointer+0x6baf>
    2f4e:	7466                	.insn	2, 0x7466
    2f50:	7265                	.insn	2, 0x7265
    2f52:	6520                	.insn	2, 0x6520
    2f54:	6361                	.insn	2, 0x6361
    2f56:	2068                	.insn	2, 0x2068
    2f58:	6964                	.insn	2, 0x6964
    2f5a:	2e746967          	.insn	4, 0x2e746967
    2f5e:	000a                	.insn	2, 0x000a
    2f60:	6e45                	.insn	2, 0x6e45
    2f62:	6574                	.insn	2, 0x6574
    2f64:	2072                	.insn	2, 0x2072
    2f66:	6964                	.insn	2, 0x6964
    2f68:	20746967          	.insn	4, 0x20746967
    2f6c:	0000                	.insn	2, 0x
    2f6e:	0000                	.insn	2, 0x
    2f70:	2820                	.insn	2, 0x2820
    2f72:	756f6873          	csrrsi	a6,0x756,30
    2f76:	646c                	.insn	2, 0x646c
    2f78:	6220                	.insn	2, 0x6220
    2f7a:	2065                	.insn	2, 0x2065
    2f7c:	0000                	.insn	2, 0x
    2f7e:	0000                	.insn	2, 0x
    2f80:	3a29                	.insn	2, 0x3a29
    2f82:	0020                	.insn	2, 0x0020
    2f84:	72726f43          	.insn	4, 0x72726f43
    2f88:	6365                	.insn	2, 0x6365
    2f8a:	2174                	.insn	2, 0x2174
    2f8c:	000a                	.insn	2, 0x000a
    2f8e:	0000                	.insn	2, 0x
    2f90:	6e6f7257          	.insn	4, 0x6e6f7257
    2f94:	54202167          	.insn	4, 0x54202167
    2f98:	6568                	.insn	2, 0x6568
    2f9a:	7620                	.insn	2, 0x7620
    2f9c:	7561                	.insn	2, 0x7561
    2f9e:	746c                	.insn	2, 0x746c
    2fa0:	7220                	.insn	2, 0x7220
    2fa2:	6d65                	.insn	2, 0x6d65
    2fa4:	6961                	.insn	2, 0x6961
    2fa6:	736e                	.insn	2, 0x736e
    2fa8:	6c20                	.insn	2, 0x6c20
    2faa:	656b636f          	jal	t1,b9600 <__global_pointer+0xb6c53>
    2fae:	2e64                	.insn	2, 0x2e64
    2fb0:	000a                	.insn	2, 0x000a
    2fb2:	0000                	.insn	2, 0x
    2fb4:	6f59                	.insn	2, 0x6f59
    2fb6:	2075                	.insn	2, 0x2075
    2fb8:	6e65                	.insn	2, 0x6e65
    2fba:	6574                	.insn	2, 0x6574
    2fbc:	6572                	.insn	2, 0x6572
    2fbe:	3a64                	.insn	2, 0x3a64
    2fc0:	0020                	.insn	2, 0x0020
    2fc2:	0000                	.insn	2, 0x
    2fc4:	202c                	.insn	2, 0x202c
    2fc6:	7562                	.insn	2, 0x7562
    2fc8:	2074                	.insn	2, 0x2074
    2fca:	656e                	.insn	2, 0x656e
    2fcc:	6465                	.insn	2, 0x6465
    2fce:	6465                	.insn	2, 0x6465
    2fd0:	203a                	.insn	2, 0x203a
    2fd2:	0000                	.insn	2, 0x
    2fd4:	6c41                	.insn	2, 0x6c41
    2fd6:	206c                	.insn	2, 0x206c
    2fd8:	6964                	.insn	2, 0x6964
    2fda:	73746967          	.insn	4, 0x73746967
    2fde:	6320                	.insn	2, 0x6320
    2fe0:	6572726f          	jal	tp,2ae36 <__global_pointer+0x28489>
    2fe4:	20217463          	bgeu	sp,sp,31ec <__global_pointer+0x83f>
    2fe8:	6156                	.insn	2, 0x6156
    2fea:	6c75                	.insn	2, 0x6c75
    2fec:	2074                	.insn	2, 0x2074
    2fee:	6e75                	.insn	2, 0x6e75
    2ff0:	6f6c                	.insn	2, 0x6f6c
    2ff2:	64656b63          	bltu	a0,t1,3648 <__global_pointer+0xc9b>
    2ff6:	0a21                	.insn	2, 0x0a21
    2ff8:	0000                	.insn	2, 0x
    2ffa:	0000                	.insn	2, 0x
    2ffc:	3d3d                	.insn	2, 0x3d3d
    2ffe:	203d                	.insn	2, 0x203d
    3000:	4944                	.insn	2, 0x4944
    3002:	4646                	.insn	2, 0x4646
    3004:	4349                	.insn	2, 0x4349
    3006:	4c55                	.insn	2, 0x4c55
    3008:	5954                	.insn	2, 0x5954
    300a:	5320                	.insn	2, 0x5320
    300c:	4c45                	.insn	2, 0x4c45
    300e:	4345                	.insn	2, 0x4345
    3010:	4954                	.insn	2, 0x4954
    3012:	3d204e4f          	.insn	4, 0x3d204e4f
    3016:	3d3d                	.insn	2, 0x3d3d
    3018:	000a                	.insn	2, 0x000a
    301a:	0000                	.insn	2, 0x
    301c:	6145                	.insn	2, 0x6145
    301e:	203a7973          	csrrci	s2,0x203,20
    3022:	6d303033          	.insn	4, 0x6d303033
    3026:	65722073          	csrs	hviprio2h,tp
    302a:	6361                	.insn	2, 0x6361
    302c:	6974                	.insn	2, 0x6974
    302e:	74206e6f          	jal	t3,9770 <__global_pointer+0x6dc3>
    3032:	6d69                	.insn	2, 0x6d69
    3034:	2065                	.insn	2, 0x2065
    3036:	202d                	.insn	2, 0x202d
    3038:	646f6f47          	.insn	4, 0x646f6f47
    303c:	6620                	.insn	2, 0x6620
    303e:	6220726f          	jal	tp,a660 <__global_pointer+0x7cb3>
    3042:	6765                	.insn	2, 0x6765
    3044:	6e69                	.insn	2, 0x6e69
    3046:	656e                	.insn	2, 0x656e
    3048:	7372                	.insn	2, 0x7372
    304a:	000a                	.insn	2, 0x000a
    304c:	654d                	.insn	2, 0x654d
    304e:	6964                	.insn	2, 0x6964
    3050:	6d75                	.insn	2, 0x6d75
    3052:	203a                	.insn	2, 0x203a
    3054:	3532                	.insn	2, 0x3532
    3056:	6d30                	.insn	2, 0x6d30
    3058:	65722073          	csrs	hviprio2h,tp
    305c:	6361                	.insn	2, 0x6361
    305e:	6974                	.insn	2, 0x6974
    3060:	74206e6f          	jal	t3,97a2 <__global_pointer+0x6df5>
    3064:	6d69                	.insn	2, 0x6d69
    3066:	2065                	.insn	2, 0x2065
    3068:	202d                	.insn	2, 0x202d
    306a:	6142                	.insn	2, 0x6142
    306c:	616c                	.insn	2, 0x616c
    306e:	636e                	.insn	2, 0x636e
    3070:	6465                	.insn	2, 0x6465
    3072:	6320                	.insn	2, 0x6320
    3074:	6168                	.insn	2, 0x6168
    3076:	6c6c                	.insn	2, 0x6c6c
    3078:	6e65                	.insn	2, 0x6e65
    307a:	000a6567          	.insn	4, 0x000a6567
    307e:	0000                	.insn	2, 0x
    3080:	6148                	.insn	2, 0x6148
    3082:	6472                	.insn	2, 0x6472
    3084:	203a                	.insn	2, 0x203a
    3086:	3731                	.insn	2, 0x3731
    3088:	6d35                	.insn	2, 0x6d35
    308a:	65722073          	csrs	hviprio2h,tp
    308e:	6361                	.insn	2, 0x6361
    3090:	6974                	.insn	2, 0x6974
    3092:	74206e6f          	jal	t3,97d4 <__global_pointer+0x6e27>
    3096:	6d69                	.insn	2, 0x6d69
    3098:	2065                	.insn	2, 0x2065
    309a:	202d                	.insn	2, 0x202d
    309c:	7845                	.insn	2, 0x7845
    309e:	6570                	.insn	2, 0x6570
    30a0:	7472                	.insn	2, 0x7472
    30a2:	6c20                	.insn	2, 0x6c20
    30a4:	7665                	.insn	2, 0x7665
    30a6:	6c65                	.insn	2, 0x6c65
    30a8:	000a                	.insn	2, 0x000a
    30aa:	0000                	.insn	2, 0x
    30ac:	7355                	.insn	2, 0x7355
    30ae:	2065                	.insn	2, 0x2065
    30b0:	74697773          	csrrci	a4,0x746,18
    30b4:	73656863          	bltu	a0,s6,37e4 <__global_pointer+0xe37>
    30b8:	7420                	.insn	2, 0x7420
    30ba:	6573206f          	j	35f10 <__global_pointer+0x33563>
    30be:	656c                	.insn	2, 0x656c
    30c0:	0a3a7463          	bgeu	s4,gp,3168 <__global_pointer+0x7bb>
    30c4:	0000                	.insn	2, 0x
    30c6:	0000                	.insn	2, 0x
    30c8:	3d395753          	.insn	4, 0x3d395753
    30cc:	6145                	.insn	2, 0x6145
    30ce:	202c7973          	csrrci	s2,0x202,24
    30d2:	3d385753          	.insn	4, 0x3d385753
    30d6:	654d                	.insn	2, 0x654d
    30d8:	6964                	.insn	2, 0x6964
    30da:	6d75                	.insn	2, 0x6d75
    30dc:	202c                	.insn	2, 0x202c
    30de:	3d375753          	.insn	4, 0x3d375753
    30e2:	6148                	.insn	2, 0x6148
    30e4:	6472                	.insn	2, 0x6472
    30e6:	000a                	.insn	2, 0x000a
    30e8:	20746553          	.insn	4, 0x20746553
    30ec:	20454e4f          	.insn	4, 0x20454e4f
    30f0:	74697773          	csrrci	a4,0x746,18
    30f4:	61206863          	bltu	zero,s2,3704 <__global_pointer+0xd57>
    30f8:	646e                	.insn	2, 0x646e
    30fa:	7020                	.insn	2, 0x7020
    30fc:	6572                	.insn	2, 0x6572
    30fe:	62207373          	csrrci	t1,0x622,0
    3102:	7475                	.insn	2, 0x7475
    3104:	6f74                	.insn	2, 0x6f74
    3106:	206e                	.insn	2, 0x206e
    3108:	6f74                	.insn	2, 0x6f74
    310a:	6320                	.insn	2, 0x6320
    310c:	69666e6f          	jal	t3,697a2 <__global_pointer+0x66df5>
    3110:	6d72                	.insn	2, 0x6d72
    3112:	0a2e                	.insn	2, 0x0a2e
    3114:	0000                	.insn	2, 0x
    3116:	0000                	.insn	2, 0x
    3118:	6148                	.insn	2, 0x6148
    311a:	6472                	.insn	2, 0x6472
    311c:	6420                	.insn	2, 0x6420
    311e:	6669                	.insn	2, 0x6669
    3120:	6966                	.insn	2, 0x6966
    3122:	746c7563          	bgeu	s8,t1,386c <__global_pointer+0xebf>
    3126:	2079                	.insn	2, 0x2079
    3128:	656c6573          	csrrsi	a0,hviprio1h,24
    312c:	64657463          	bgeu	a0,t1,3774 <__global_pointer+0xdc7>
    3130:	0a21                	.insn	2, 0x0a21
    3132:	0000                	.insn	2, 0x
    3134:	7245                	.insn	2, 0x7245
    3136:	6f72                	.insn	2, 0x6f72
    3138:	3a72                	.insn	2, 0x3a72
    313a:	5320                	.insn	2, 0x5320
    313c:	7465                	.insn	2, 0x7465
    313e:	4f20                	.insn	2, 0x4f20
    3140:	4c4e                	.insn	2, 0x4c4e
    3142:	2059                	.insn	2, 0x2059
    3144:	20454e4f          	.insn	4, 0x20454e4f
    3148:	6964                	.insn	2, 0x6964
    314a:	6666                	.insn	2, 0x6666
    314c:	6369                	.insn	2, 0x6369
    314e:	6c75                	.insn	2, 0x6c75
    3150:	7974                	.insn	2, 0x7974
    3152:	7320                	.insn	2, 0x7320
    3154:	63746977          	.insn	4, 0x63746977
    3158:	2168                	.insn	2, 0x2168
    315a:	000a                	.insn	2, 0x000a
    315c:	6f59                	.insn	2, 0x6f59
    315e:	2775                	.insn	2, 0x2775
    3160:	6576                	.insn	2, 0x6576
    3162:	6120                	.insn	2, 0x6120
    3164:	726c                	.insn	2, 0x726c
    3166:	6165                	.insn	2, 0x6165
    3168:	7964                	.insn	2, 0x7964
    316a:	7320                	.insn	2, 0x7320
    316c:	6c65                	.insn	2, 0x6c65
    316e:	6365                	.insn	2, 0x6365
    3170:	6574                	.insn	2, 0x6574
    3172:	2064                	.insn	2, 0x2064
    3174:	6f79                	.insn	2, 0x6f79
    3176:	7275                	.insn	2, 0x7275
    3178:	6420                	.insn	2, 0x6420
    317a:	6669                	.insn	2, 0x6669
    317c:	6966                	.insn	2, 0x6966
    317e:	746c7563          	bgeu	s8,t1,38c8 <__global_pointer+0xf1b>
    3182:	2e79                	.insn	2, 0x2e79
    3184:	000a                	.insn	2, 0x000a
    3186:	0000                	.insn	2, 0x
    3188:	7355                	.insn	2, 0x7355
    318a:	2065                	.insn	2, 0x2065
    318c:	6874                	.insn	2, 0x6874
    318e:	2065                	.insn	2, 0x2065
    3190:	746e6f63          	bltu	t3,t1,38ee <__global_pointer+0xf41>
    3194:	6f72                	.insn	2, 0x6f72
    3196:	736c                	.insn	2, 0x736c
    3198:	7420                	.insn	2, 0x7420
    319a:	7865206f          	j	55920 <__global_pointer+0x52f73>
    319e:	6c70                	.insn	2, 0x6c70
    31a0:	2065726f          	jal	tp,5a3a6 <__global_pointer+0x579f9>
    31a4:	6e61                	.insn	2, 0x6e61
    31a6:	2064                	.insn	2, 0x2064
    31a8:	6966                	.insn	2, 0x6966
    31aa:	646e                	.insn	2, 0x646e
    31ac:	7920                	.insn	2, 0x7920
    31ae:	2072756f          	jal	a0,2abb4 <__global_pointer+0x28207>
    31b2:	20796177          	.insn	4, 0x20796177
    31b6:	2174756f          	jal	a0,4abcc <__global_pointer+0x4821f>
    31ba:	000a                	.insn	2, 0x000a
    31bc:	6f59                	.insn	2, 0x6f59
    31be:	2075                	.insn	2, 0x2075
    31c0:	6f66                	.insn	2, 0x6f66
    31c2:	6e75                	.insn	2, 0x6e75
    31c4:	2064                	.insn	2, 0x2064
    31c6:	6874                	.insn	2, 0x6874
    31c8:	2065                	.insn	2, 0x2065
    31ca:	7865                	.insn	2, 0x7865
    31cc:	7469                	.insn	2, 0x7469
    31ce:	6420                	.insn	2, 0x6420
    31d0:	20726f6f          	jal	t5,29bd6 <__global_pointer+0x27229>
    31d4:	2179656b          	.insn	4, 0x2179656b
    31d8:	000a                	.insn	2, 0x000a
    31da:	0000                	.insn	2, 0x
    31dc:	6f59                	.insn	2, 0x6f59
    31de:	2075                	.insn	2, 0x2075
    31e0:	65726163          	bltu	tp,s7,3822 <__global_pointer+0xe75>
    31e4:	7566                	.insn	2, 0x7566
    31e6:	6c6c                	.insn	2, 0x6c6c
    31e8:	2079                	.insn	2, 0x2079
    31ea:	72616573          	csrrsi	a0,mhpmevent6h,2
    31ee:	74206863          	bltu	zero,sp,393e <__global_pointer+0xf91>
    31f2:	7268                	.insn	2, 0x7268
    31f4:	6867756f          	jal	a0,7a87a <__global_pointer+0x77ecd>
    31f8:	7420                	.insn	2, 0x7420
    31fa:	6568                	.insn	2, 0x6568
    31fc:	6420                	.insn	2, 0x6420
    31fe:	7375                	.insn	2, 0x7375
    3200:	7974                	.insn	2, 0x7974
    3202:	7320                	.insn	2, 0x7320
    3204:	6568                	.insn	2, 0x6568
    3206:	766c                	.insn	2, 0x766c
    3208:	7365                	.insn	2, 0x7365
    320a:	2e2e                	.insn	2, 0x2e2e
    320c:	0a2e                	.insn	2, 0x0a2e
    320e:	0000                	.insn	2, 0x
    3210:	6f59                	.insn	2, 0x6f59
    3212:	2075                	.insn	2, 0x2075
    3214:	6966                	.insn	2, 0x6966
    3216:	646e                	.insn	2, 0x646e
    3218:	0a3a                	.insn	2, 0x0a3a
    321a:	0000                	.insn	2, 0x
    321c:	202d                	.insn	2, 0x202d
    321e:	20646c4f          	.insn	4, 0x20646c4f
    3222:	63726963          	bltu	tp,s7,3854 <__global_pointer+0xea7>
    3226:	6975                	.insn	2, 0x6975
    3228:	2074                	.insn	2, 0x2074
    322a:	6f62                	.insn	2, 0x6f62
    322c:	7261                	.insn	2, 0x7261
    322e:	7364                	.insn	2, 0x7364
    3230:	000a                	.insn	2, 0x000a
    3232:	0000                	.insn	2, 0x
    3234:	202d                	.insn	2, 0x202d
    3236:	7552                	.insn	2, 0x7552
    3238:	20797473          	csrrci	s0,0x207,18
    323c:	6f74                	.insn	2, 0x6f74
    323e:	0a736c6f          	jal	s8,39ae4 <__global_pointer+0x37137>
    3242:	0000                	.insn	2, 0x
    3244:	202d                	.insn	2, 0x202d
    3246:	6d45                	.insn	2, 0x6d45
    3248:	7470                	.insn	2, 0x7470
    324a:	2079                	.insn	2, 0x2079
    324c:	746e6f63          	bltu	t3,t1,39aa <__global_pointer+0xffd>
    3250:	6961                	.insn	2, 0x6961
    3252:	656e                	.insn	2, 0x656e
    3254:	7372                	.insn	2, 0x7372
    3256:	000a                	.insn	2, 0x000a
    3258:	202d                	.insn	2, 0x202d
    325a:	7544                	.insn	2, 0x7544
    325c:	20797473          	csrrci	s0,0x207,18
    3260:	616d                	.insn	2, 0x616d
    3262:	756e                	.insn	2, 0x756e
    3264:	6c61                	.insn	2, 0x6c61
    3266:	00000a73          	.insn	4, 0x0a73
    326a:	0000                	.insn	2, 0x
    326c:	6f4e                	.insn	2, 0x6f4e
    326e:	6874                	.insn	2, 0x6874
    3270:	6e69                	.insn	2, 0x6e69
    3272:	73752067          	.insn	4, 0x73752067
    3276:	6665                	.insn	2, 0x6665
    3278:	6c75                	.insn	2, 0x6c75
    327a:	6820                	.insn	2, 0x6820
    327c:	7265                	.insn	2, 0x7265
    327e:	2c65                	.insn	2, 0x2c65
    3280:	6220                	.insn	2, 0x6220
    3282:	7475                	.insn	2, 0x7475
    3284:	7920                	.insn	2, 0x7920
    3286:	6e20756f          	jal	a0,a968 <__global_pointer+0x7fbb>
    328a:	6369746f          	jal	s0,9a8c0 <__global_pointer+0x97f13>
    328e:	2065                	.insn	2, 0x2065
    3290:	2061                	.insn	2, 0x2061
    3292:	6f64                	.insn	2, 0x6f64
    3294:	7420726f          	jal	tp,a9d6 <__global_pointer+0x8029>
    3298:	6874206f          	j	4611e <__global_pointer+0x43771>
    329c:	2065                	.insn	2, 0x2065
    329e:	6f6e                	.insn	2, 0x6f6e
    32a0:	7472                	.insn	2, 0x7472
    32a2:	2e68                	.insn	2, 0x2e68
    32a4:	000a                	.insn	2, 0x000a
    32a6:	0000                	.insn	2, 0x
    32a8:	614d                	.insn	2, 0x614d
    32aa:	6279                	.insn	2, 0x6279
    32ac:	2065                	.insn	2, 0x2065
    32ae:	6f79                	.insn	2, 0x6f79
    32b0:	2075                	.insn	2, 0x2075
    32b2:	756f6873          	csrrsi	a6,0x756,30
    32b6:	646c                	.insn	2, 0x646c
    32b8:	6320                	.insn	2, 0x6320
    32ba:	6568                	.insn	2, 0x6568
    32bc:	74206b63          	bltu	zero,sp,3a12 <__global_pointer+0x1065>
    32c0:	6568                	.insn	2, 0x6568
    32c2:	6f20                	.insn	2, 0x6f20
    32c4:	6666                	.insn	2, 0x6666
    32c6:	6369                	.insn	2, 0x6369
    32c8:	3f65                	.insn	2, 0x3f65
    32ca:	000a                	.insn	2, 0x000a
    32cc:	6854                	.insn	2, 0x6854
    32ce:	7265                	.insn	2, 0x7265
    32d0:	2765                	.insn	2, 0x2765
    32d2:	6f6e2073          	csrs	0x6f6,t3
    32d6:	6874                	.insn	2, 0x6874
    32d8:	6e69                	.insn	2, 0x6e69
    32da:	6f6d2067          	.insn	4, 0x6f6d2067
    32de:	6572                	.insn	2, 0x6572
    32e0:	7420                	.insn	2, 0x7420
    32e2:	6966206f          	j	65978 <__global_pointer+0x62fcb>
    32e6:	646e                	.insn	2, 0x646e
    32e8:	6820                	.insn	2, 0x6820
    32ea:	7265                	.insn	2, 0x7265
    32ec:	2e65                	.insn	2, 0x2e65
    32ee:	000a                	.insn	2, 0x000a
    32f0:	6f59                	.insn	2, 0x6f59
    32f2:	2075                	.insn	2, 0x2075
    32f4:	6f66                	.insn	2, 0x6f66
    32f6:	6e75                	.insn	2, 0x6e75
    32f8:	2064                	.insn	2, 0x2064
    32fa:	6874                	.insn	2, 0x6874
    32fc:	2065                	.insn	2, 0x2065
    32fe:	6f62                	.insn	2, 0x6f62
    3300:	72207373          	csrrci	t1,minstretcfgh,0
    3304:	206d6f6f          	jal	t5,d950a <__global_pointer+0xd6b5d>
    3308:	2179656b          	.insn	4, 0x2179656b
    330c:	000a                	.insn	2, 0x000a
    330e:	0000                	.insn	2, 0x
    3310:	7254                	.insn	2, 0x7254
    3312:	2079                	.insn	2, 0x2079
    3314:	6874                	.insn	2, 0x6874
    3316:	2065                	.insn	2, 0x2065
    3318:	656d                	.insn	2, 0x656d
    331a:	6f6d                	.insn	2, 0x6f6d
    331c:	7972                	.insn	2, 0x7972
    331e:	6320                	.insn	2, 0x6320
    3320:	6168                	.insn	2, 0x6168
    3322:	6c6c                	.insn	2, 0x6c6c
    3324:	6e65                	.insn	2, 0x6e65
    3326:	61206567          	.insn	4, 0x61206567
    332a:	6e696167          	.insn	4, 0x6e696167
    332e:	7720                	.insn	2, 0x7720
    3330:	6568                	.insn	2, 0x6568
    3332:	206e                	.insn	2, 0x206e
    3334:	6f79                	.insn	2, 0x6f79
    3336:	2775                	.insn	2, 0x2775
    3338:	6572                	.insn	2, 0x6572
    333a:	7220                	.insn	2, 0x7220
    333c:	6165                	.insn	2, 0x6165
    333e:	7964                	.insn	2, 0x7964
    3340:	0a2e                	.insn	2, 0x0a2e
    3342:	0000                	.insn	2, 0x
    3344:	6f4e                	.insn	2, 0x6f4e
    3346:	6874                	.insn	2, 0x6874
    3348:	6e69                	.insn	2, 0x6e69
    334a:	6f742067          	.insn	4, 0x6f742067
    334e:	6920                	.insn	2, 0x6920
    3350:	746e                	.insn	2, 0x746e
    3352:	7265                	.insn	2, 0x7265
    3354:	6361                	.insn	2, 0x6361
    3356:	2074                	.insn	2, 0x2074
    3358:	68746977          	.insn	4, 0x68746977
    335c:	6820                	.insn	2, 0x6820
    335e:	7265                	.insn	2, 0x7265
    3360:	2e65                	.insn	2, 0x2e65
    3362:	000a                	.insn	2, 0x000a
    3364:	6f59                	.insn	2, 0x6f59
    3366:	2075                	.insn	2, 0x2075
    3368:	656e                	.insn	2, 0x656e
    336a:	6465                	.insn	2, 0x6465
    336c:	7420                	.insn	2, 0x7420
    336e:	6568                	.insn	2, 0x6568
    3370:	6220                	.insn	2, 0x6220
    3372:	2073736f          	jal	t1,3ad78 <__global_pointer+0x383cb>
    3376:	6f72                	.insn	2, 0x6f72
    3378:	6b206d6f          	jal	s10,9a2a <__global_pointer+0x707d>
    337c:	7965                	.insn	2, 0x7965
    337e:	7420                	.insn	2, 0x7420
    3380:	6e65206f          	j	55a66 <__global_pointer+0x530b9>
    3384:	6574                	.insn	2, 0x6574
    3386:	2072                	.insn	2, 0x2072
    3388:	6874                	.insn	2, 0x6874
    338a:	7369                	.insn	2, 0x7369
    338c:	6320                	.insn	2, 0x6320
    338e:	6168                	.insn	2, 0x6168
    3390:	6c6c                	.insn	2, 0x6c6c
    3392:	6e65                	.insn	2, 0x6e65
    3394:	0a216567          	.insn	4, 0x0a216567
    3398:	0000                	.insn	2, 0x
    339a:	0000                	.insn	2, 0x
    339c:	6946                	.insn	2, 0x6946
    339e:	646e                	.insn	2, 0x646e
    33a0:	7420                	.insn	2, 0x7420
    33a2:	6568                	.insn	2, 0x6568
    33a4:	6b20                	.insn	2, 0x6b20
    33a6:	7965                	.insn	2, 0x7965
    33a8:	6920                	.insn	2, 0x6920
    33aa:	206e                	.insn	2, 0x206e
    33ac:	6e61                	.insn	2, 0x6e61
    33ae:	6568746f          	jal	s0,8aa04 <__global_pointer+0x88057>
    33b2:	2072                	.insn	2, 0x2072
    33b4:	6f72                	.insn	2, 0x6f72
    33b6:	66206d6f          	jal	s10,9a18 <__global_pointer+0x706b>
    33ba:	7269                	.insn	2, 0x7269
    33bc:	0a2e7473          	csrrci	s0,0xa2,28
    33c0:	0000                	.insn	2, 0x
    33c2:	0000                	.insn	2, 0x
    33c4:	6f59                	.insn	2, 0x6f59
    33c6:	2075                	.insn	2, 0x2075
    33c8:	7375                	.insn	2, 0x7375
    33ca:	2065                	.insn	2, 0x2065
    33cc:	6874                	.insn	2, 0x6874
    33ce:	2065                	.insn	2, 0x2065
    33d0:	6f62                	.insn	2, 0x6f62
    33d2:	72207373          	csrrci	t1,minstretcfgh,0
    33d6:	206d6f6f          	jal	t5,d95dc <__global_pointer+0xd6c2f>
    33da:	2079656b          	.insn	4, 0x2079656b
    33de:	6e61                	.insn	2, 0x6e61
    33e0:	2064                	.insn	2, 0x2064
    33e2:	6e65                	.insn	2, 0x6e65
    33e4:	6574                	.insn	2, 0x6574
    33e6:	2072                	.insn	2, 0x2072
    33e8:	6874                	.insn	2, 0x6874
    33ea:	2065                	.insn	2, 0x2065
    33ec:	6c616863          	bltu	sp,t1,3abc <__global_pointer+0x110f>
    33f0:	656c                	.insn	2, 0x656c
    33f2:	676e                	.insn	2, 0x676e
    33f4:	2165                	.insn	2, 0x2165
    33f6:	000a                	.insn	2, 0x000a
    33f8:	6f42                	.insn	2, 0x6f42
    33fa:	64207373          	csrrci	t1,0x642,0
    33fe:	6665                	.insn	2, 0x6665
    3400:	6165                	.insn	2, 0x6165
    3402:	6574                	.insn	2, 0x6574
    3404:	2164                	.insn	2, 0x2164
    3406:	5920                	.insn	2, 0x5920
    3408:	6320756f          	jal	a0,aa3a <__global_pointer+0x808d>
    340c:	6e61                	.insn	2, 0x6e61
    340e:	6e20                	.insn	2, 0x6e20
    3410:	6320776f          	jal	a4,aa42 <__global_pointer+0x8095>
    3414:	69746e6f          	jal	t3,4a2aa <__global_pointer+0x478fd>
    3418:	756e                	.insn	2, 0x756e
    341a:	2065                	.insn	2, 0x2065
    341c:	6f74                	.insn	2, 0x6f74
    341e:	7420                	.insn	2, 0x7420
    3420:	6568                	.insn	2, 0x6568
    3422:	6c20                	.insn	2, 0x6c20
    3424:	676e756f          	jal	a0,eaa9a <__global_pointer+0xe80ed>
    3428:	2e65                	.insn	2, 0x2e65
    342a:	000a                	.insn	2, 0x000a
    342c:	7254                	.insn	2, 0x7254
    342e:	2079                	.insn	2, 0x2079
    3430:	6874                	.insn	2, 0x6874
    3432:	2065                	.insn	2, 0x2065
    3434:	6572                	.insn	2, 0x6572
    3436:	6361                	.insn	2, 0x6361
    3438:	6974                	.insn	2, 0x6974
    343a:	63206e6f          	jal	t3,9a6c <__global_pointer+0x70bf>
    343e:	6168                	.insn	2, 0x6168
    3440:	6c6c                	.insn	2, 0x6c6c
    3442:	6e65                	.insn	2, 0x6e65
    3444:	61206567          	.insn	4, 0x61206567
    3448:	6e696167          	.insn	4, 0x6e696167
    344c:	7720                	.insn	2, 0x7720
    344e:	6568                	.insn	2, 0x6568
    3450:	206e                	.insn	2, 0x206e
    3452:	6f79                	.insn	2, 0x6f79
    3454:	2775                	.insn	2, 0x2775
    3456:	6572                	.insn	2, 0x6572
    3458:	7220                	.insn	2, 0x7220
    345a:	6165                	.insn	2, 0x6165
    345c:	7964                	.insn	2, 0x7964
    345e:	0a2e                	.insn	2, 0x0a2e
    3460:	0000                	.insn	2, 0x
    3462:	0000                	.insn	2, 0x
    3464:	6f59                	.insn	2, 0x6f59
    3466:	2075                	.insn	2, 0x2075
    3468:	6f66                	.insn	2, 0x6f66
    346a:	6e75                	.insn	2, 0x6e75
    346c:	2064                	.insn	2, 0x2064
    346e:	6874                	.insn	2, 0x6874
    3470:	2065                	.insn	2, 0x2065
    3472:	6176                	.insn	2, 0x6176
    3474:	6c75                	.insn	2, 0x6c75
    3476:	2074                	.insn	2, 0x2074
    3478:	2179656b          	.insn	4, 0x2179656b
    347c:	000a                	.insn	2, 0x000a
    347e:	0000                	.insn	2, 0x
    3480:	6f59                	.insn	2, 0x6f59
    3482:	2075                	.insn	2, 0x2075
    3484:	656e                	.insn	2, 0x656e
    3486:	6465                	.insn	2, 0x6465
    3488:	7420                	.insn	2, 0x7420
    348a:	6564206f          	j	45ae0 <__global_pointer+0x43133>
    348e:	6566                	.insn	2, 0x6566
    3490:	7461                	.insn	2, 0x7461
    3492:	7420                	.insn	2, 0x7420
    3494:	6568                	.insn	2, 0x6568
    3496:	6220                	.insn	2, 0x6220
    3498:	2073736f          	jal	t1,3ae9e <__global_pointer+0x384f1>
    349c:	6966                	.insn	2, 0x6966
    349e:	7372                	.insn	2, 0x7372
    34a0:	2074                	.insn	2, 0x2074
    34a2:	6f74                	.insn	2, 0x6f74
    34a4:	6720                	.insn	2, 0x6720
    34a6:	7465                	.insn	2, 0x7465
    34a8:	6120                	.insn	2, 0x6120
    34aa:	7220                	.insn	2, 0x7220
    34ac:	7765                	.insn	2, 0x7765
    34ae:	7261                	.insn	2, 0x7261
    34b0:	2064                	.insn	2, 0x2064
    34b2:	6568                	.insn	2, 0x6568
    34b4:	6572                	.insn	2, 0x6572
    34b6:	0a2e                	.insn	2, 0x0a2e
    34b8:	0000                	.insn	2, 0x
    34ba:	0000                	.insn	2, 0x
    34bc:	6f59                	.insn	2, 0x6f59
    34be:	2075                	.insn	2, 0x2075
    34c0:	6168                	.insn	2, 0x6168
    34c2:	6576                	.insn	2, 0x6576
    34c4:	6120                	.insn	2, 0x6120
    34c6:	726c                	.insn	2, 0x726c
    34c8:	6165                	.insn	2, 0x6165
    34ca:	7964                	.insn	2, 0x7964
    34cc:	6320                	.insn	2, 0x6320
    34ce:	656c6c6f          	jal	s8,c9b24 <__global_pointer+0xc7177>
    34d2:	64657463          	bgeu	a0,t1,3b1a <__global_pointer+0x116d>
    34d6:	7420                	.insn	2, 0x7420
    34d8:	6568                	.insn	2, 0x6568
    34da:	7620                	.insn	2, 0x7620
    34dc:	7561                	.insn	2, 0x7561
    34de:	746c                	.insn	2, 0x746c
    34e0:	6b20                	.insn	2, 0x6b20
    34e2:	7965                	.insn	2, 0x7965
    34e4:	0a2e                	.insn	2, 0x0a2e
    34e6:	0000                	.insn	2, 0x
    34e8:	6f59                	.insn	2, 0x6f59
    34ea:	2075                	.insn	2, 0x2075
    34ec:	6e69                	.insn	2, 0x6e69
    34ee:	74726573          	csrrsi	a0,0x747,4
    34f2:	7420                	.insn	2, 0x7420
    34f4:	6568                	.insn	2, 0x6568
    34f6:	6520                	.insn	2, 0x6520
    34f8:	6978                	.insn	2, 0x6978
    34fa:	2074                	.insn	2, 0x2074
    34fc:	6f64                	.insn	2, 0x6f64
    34fe:	6b20726f          	jal	tp,abb0 <__global_pointer+0x8203>
    3502:	7965                	.insn	2, 0x7965
    3504:	2e2e                	.insn	2, 0x2e2e
    3506:	0a2e                	.insn	2, 0x0a2e
    3508:	0000                	.insn	2, 0x
    350a:	0000                	.insn	2, 0x
    350c:	6854                	.insn	2, 0x6854
    350e:	2065                	.insn	2, 0x2065
    3510:	6f64                	.insn	2, 0x6f64
    3512:	6320726f          	jal	tp,ab44 <__global_pointer+0x8197>
    3516:	6572                	.insn	2, 0x6572
    3518:	6b61                	.insn	2, 0x6b61
    351a:	6d6f2073          	csrs	0x6d6,t5
    351e:	6e69                	.insn	2, 0x6e69
    3520:	6c73756f          	jal	a0,3b3e6 <__global_pointer+0x38a39>
    3524:	2e79                	.insn	2, 0x2e79
    3526:	2e2e                	.insn	2, 0x2e2e
    3528:	000a                	.insn	2, 0x000a
    352a:	0000                	.insn	2, 0x
    352c:	68746957          	.insn	4, 0x68746957
    3530:	6120                	.insn	2, 0x6120
    3532:	6c20                	.insn	2, 0x6c20
    3534:	2064756f          	jal	a0,4a73a <__global_pointer+0x47d8d>
    3538:	4e414c43          	.insn	4, 0x4e414c43
    353c:	74202c47          	.insn	4, 0x74202c47
    3540:	6568                	.insn	2, 0x6568
    3542:	6d20                	.insn	2, 0x6d20
    3544:	7361                	.insn	2, 0x7361
    3546:	65766973          	csrrsi	s2,hviprio2h,12
    354a:	6420                	.insn	2, 0x6420
    354c:	20726f6f          	jal	t5,29f52 <__global_pointer+0x275a5>
    3550:	64696c73          	csrrsi	s8,hviprio1,18
    3554:	7365                	.insn	2, 0x7365
    3556:	6f20                	.insn	2, 0x6f20
    3558:	6570                	.insn	2, 0x6570
    355a:	2e6e                	.insn	2, 0x2e6e
    355c:	000a                	.insn	2, 0x000a
    355e:	0000                	.insn	2, 0x
    3560:	2041                	.insn	2, 0x2041
    3562:	7572                	.insn	2, 0x7572
    3564:	6f206873          	csrrsi	a6,0x6f2,0
    3568:	2066                	.insn	2, 0x2066
    356a:	646c6f63          	bltu	s8,t1,3bc8 <__global_pointer+0x121b>
    356e:	6120                	.insn	2, 0x6120
    3570:	7269                	.insn	2, 0x7269
    3572:	6820                	.insn	2, 0x6820
    3574:	7469                	.insn	2, 0x7469
    3576:	6f792073          	csrs	0x6f7,s2
    357a:	7275                	.insn	2, 0x7275
    357c:	6620                	.insn	2, 0x6620
    357e:	6361                	.insn	2, 0x6361
    3580:	2e65                	.insn	2, 0x2e65
    3582:	000a                	.insn	2, 0x000a
    3584:	6854                	.insn	2, 0x6854
    3586:	2065                	.insn	2, 0x2065
    3588:	6c65                	.insn	2, 0x6c65
    358a:	7665                	.insn	2, 0x7665
    358c:	7461                	.insn	2, 0x7461
    358e:	6120726f          	jal	tp,aba0 <__global_pointer+0x81f3>
    3592:	74696177          	.insn	4, 0x74696177
    3596:	65622073          	csrs	hviprio1h,tp
    359a:	6f79                	.insn	2, 0x6f79
    359c:	646e                	.insn	2, 0x646e
    359e:	0a2e                	.insn	2, 0x0a2e
    35a0:	0000                	.insn	2, 0x
    35a2:	0000                	.insn	2, 0x
    35a4:	6854                	.insn	2, 0x6854
    35a6:	2065                	.insn	2, 0x2065
    35a8:	7865                	.insn	2, 0x7865
    35aa:	7469                	.insn	2, 0x7469
    35ac:	6420                	.insn	2, 0x6420
    35ae:	20726f6f          	jal	t5,29fb4 <__global_pointer+0x27607>
    35b2:	7369                	.insn	2, 0x7369
    35b4:	6e20                	.insn	2, 0x6e20
    35b6:	6f20776f          	jal	a4,aca8 <__global_pointer+0x82fb>
    35ba:	6570                	.insn	2, 0x6570
    35bc:	216e                	.insn	2, 0x216e
    35be:	5920                	.insn	2, 0x5920
    35c0:	6320756f          	jal	a0,abf2 <__global_pointer+0x8245>
    35c4:	6e61                	.insn	2, 0x6e61
    35c6:	7020                	.insn	2, 0x7020
    35c8:	6f72                	.insn	2, 0x6f72
    35ca:	64656563          	bltu	a0,t1,3c14 <__global_pointer+0x1267>
    35ce:	7420                	.insn	2, 0x7420
    35d0:	6874206f          	j	46456 <__global_pointer+0x43aa9>
    35d4:	2065                	.insn	2, 0x2065
    35d6:	6c65                	.insn	2, 0x6c65
    35d8:	7665                	.insn	2, 0x7665
    35da:	7461                	.insn	2, 0x7461
    35dc:	0a2e726f          	jal	tp,ea67e <__global_pointer+0xe7cd1>
    35e0:	0000                	.insn	2, 0x
    35e2:	0000                	.insn	2, 0x
    35e4:	6854                	.insn	2, 0x6854
    35e6:	2065                	.insn	2, 0x2065
    35e8:	7865                	.insn	2, 0x7865
    35ea:	7469                	.insn	2, 0x7469
    35ec:	6420                	.insn	2, 0x6420
    35ee:	20726f6f          	jal	t5,29ff4 <__global_pointer+0x27647>
    35f2:	7369                	.insn	2, 0x7369
    35f4:	6120                	.insn	2, 0x6120
    35f6:	726c                	.insn	2, 0x726c
    35f8:	6165                	.insn	2, 0x6165
    35fa:	7964                	.insn	2, 0x7964
    35fc:	6f20                	.insn	2, 0x6f20
    35fe:	6570                	.insn	2, 0x6570
    3600:	2e6e                	.insn	2, 0x2e6e
    3602:	5920                	.insn	2, 0x5920
    3604:	6320756f          	jal	a0,ac36 <__global_pointer+0x8289>
    3608:	6e61                	.insn	2, 0x6e61
    360a:	7020                	.insn	2, 0x7020
    360c:	6f72                	.insn	2, 0x6f72
    360e:	64656563          	bltu	a0,t1,3c58 <__global_pointer+0x12ab>
    3612:	7420                	.insn	2, 0x7420
    3614:	6874206f          	j	4649a <__global_pointer+0x43aed>
    3618:	2065                	.insn	2, 0x2065
    361a:	6c65                	.insn	2, 0x6c65
    361c:	7665                	.insn	2, 0x7665
    361e:	7461                	.insn	2, 0x7461
    3620:	0a2e726f          	jal	tp,ea6c2 <__global_pointer+0xe7d15>
    3624:	0000                	.insn	2, 0x
    3626:	0000                	.insn	2, 0x
    3628:	6f4e                	.insn	2, 0x6f4e
    362a:	6874                	.insn	2, 0x6874
    362c:	6e69                	.insn	2, 0x6e69
    362e:	6f742067          	.insn	4, 0x6f742067
    3632:	6920                	.insn	2, 0x6920
    3634:	746e                	.insn	2, 0x746e
    3636:	7265                	.insn	2, 0x7265
    3638:	6361                	.insn	2, 0x6361
    363a:	2074                	.insn	2, 0x2074
    363c:	68746977          	.insn	4, 0x68746977
    3640:	6920                	.insn	2, 0x6920
    3642:	206e                	.insn	2, 0x206e
    3644:	6874                	.insn	2, 0x6874
    3646:	7369                	.insn	2, 0x7369
    3648:	7220                	.insn	2, 0x7220
    364a:	2e6d6f6f          	jal	t5,d9930 <__global_pointer+0xd6f83>
    364e:	000a                	.insn	2, 0x000a
    3650:	6145                	.insn	2, 0x6145
    3652:	64207973          	csrrci	s2,0x642,0
    3656:	6669                	.insn	2, 0x6669
    3658:	6966                	.insn	2, 0x6966
    365a:	746c7563          	bgeu	s8,t1,3da4 <__global_pointer+0x13f7>
    365e:	2079                	.insn	2, 0x2079
    3660:	656c6573          	csrrsi	a0,hviprio1h,24
    3664:	64657463          	bgeu	a0,t1,3cac <__global_pointer+0x12ff>
    3668:	0a21                	.insn	2, 0x0a21
    366a:	0000                	.insn	2, 0x
    366c:	654d                	.insn	2, 0x654d
    366e:	6964                	.insn	2, 0x6964
    3670:	6d75                	.insn	2, 0x6d75
    3672:	6420                	.insn	2, 0x6420
    3674:	6669                	.insn	2, 0x6669
    3676:	6966                	.insn	2, 0x6966
    3678:	746c7563          	bgeu	s8,t1,3dc2 <__global_pointer+0x1415>
    367c:	2079                	.insn	2, 0x2079
    367e:	656c6573          	csrrsi	a0,hviprio1h,24
    3682:	64657463          	bgeu	a0,t1,3cca <__global_pointer+0x131d>
    3686:	0a21                	.insn	2, 0x0a21
    3688:	0000                	.insn	2, 0x
    368a:	0000                	.insn	2, 0x
    368c:	636c6557          	.insn	4, 0x636c6557
    3690:	20656d6f          	jal	s10,59896 <__global_pointer+0x56ee9>
    3694:	6f74                	.insn	2, 0x6f74
    3696:	7420                	.insn	2, 0x7420
    3698:	6568                	.insn	2, 0x6568
    369a:	4520                	.insn	2, 0x4520
    369c:	70616373          	csrrsi	t1,0x706,2
    36a0:	2065                	.insn	2, 0x2065
    36a2:	6f52                	.insn	2, 0x6f52
    36a4:	47206d6f          	jal	s10,9b16 <__global_pointer+0x7169>
    36a8:	6d61                	.insn	2, 0x6d61
    36aa:	2165                	.insn	2, 0x2165
    36ac:	000a                	.insn	2, 0x000a
    36ae:	0000                	.insn	2, 0x
    36b0:	4f4d                	.insn	2, 0x4f4d
    36b2:	4556                	.insn	2, 0x4556
    36b4:	454d                	.insn	2, 0x454d
    36b6:	544e                	.insn	2, 0x544e
    36b8:	203a                	.insn	2, 0x203a
    36ba:	20746553          	.insn	4, 0x20746553
    36be:	20454e4f          	.insn	4, 0x20454e4f
    36c2:	74697773          	csrrci	a4,0x746,18
    36c6:	2b206863          	bltu	zero,s2,3976 <__global_pointer+0xfc9>
    36ca:	7020                	.insn	2, 0x7020
    36cc:	6572                	.insn	2, 0x6572
    36ce:	62207373          	csrrci	t1,0x622,0
    36d2:	7475                	.insn	2, 0x7475
    36d4:	6f74                	.insn	2, 0x6f74
    36d6:	0a6e                	.insn	2, 0x0a6e
    36d8:	0000                	.insn	2, 0x
    36da:	0000                	.insn	2, 0x
    36dc:	4e49                	.insn	2, 0x4e49
    36de:	4554                	.insn	2, 0x4554
    36e0:	4152                	.insn	2, 0x4152
    36e2:	203a5443          	.insn	4, 0x203a5443
    36e6:	7554                	.insn	2, 0x7554
    36e8:	6e72                	.insn	2, 0x6e72
    36ea:	4f20                	.insn	2, 0x4f20
    36ec:	4646                	.insn	2, 0x4646
    36ee:	6120                	.insn	2, 0x6120
    36f0:	6c6c                	.insn	2, 0x6c6c
    36f2:	7320                	.insn	2, 0x7320
    36f4:	63746977          	.insn	4, 0x63746977
    36f8:	6568                	.insn	2, 0x6568
    36fa:	202b2073          	csrs	0x202,s6
    36fe:	7270                	.insn	2, 0x7270
    3700:	7365                	.insn	2, 0x7365
    3702:	75622073          	csrs	0x756,tp
    3706:	7474                	.insn	2, 0x7474
    3708:	000a6e6f          	jal	t3,a9708 <__global_pointer+0xa6d5b>
    370c:	3d305753          	.insn	4, 0x3d305753
    3710:	74736557          	.insn	4, 0x74736557
    3714:	202c                	.insn	2, 0x202c
    3716:	3d315753          	.insn	4, 0x3d315753
    371a:	6145                	.insn	2, 0x6145
    371c:	202c7473          	csrrci	s0,0x202,24
    3720:	3d325753          	.insn	4, 0x3d325753
    3724:	74756f53          	.insn	4, 0x74756f53
    3728:	2c68                	.insn	2, 0x2c68
    372a:	5320                	.insn	2, 0x5320
    372c:	4e3d3357          	.insn	4, 0x4e3d3357
    3730:	6874726f          	jal	tp,4b5b6 <__global_pointer+0x48c09>
    3734:	0a0a                	.insn	2, 0x0a0a
    3736:	0000                	.insn	2, 0x
    3738:	5245                	.insn	2, 0x5245
    373a:	4f52                	.insn	2, 0x4f52
    373c:	3a52                	.insn	2, 0x3a52
    373e:	5420                	.insn	2, 0x5420
    3740:	7275                	.insn	2, 0x7275
    3742:	206e                	.insn	2, 0x206e
    3744:	6f206e6f          	jal	t3,9e36 <__global_pointer+0x7489>
    3748:	6c6e                	.insn	2, 0x6c6e
    374a:	2079                	.insn	2, 0x2079
    374c:	20454e4f          	.insn	4, 0x20454e4f
    3750:	74697773          	csrrci	a4,0x746,18
    3754:	66206863          	bltu	zero,sp,3dc4 <__global_pointer+0x1417>
    3758:	6d20726f          	jal	tp,ae2a <__global_pointer+0x847d>
    375c:	6d65766f          	jal	a2,5ae32 <__global_pointer+0x58485>
    3760:	6e65                	.insn	2, 0x6e65
    3762:	2174                	.insn	2, 0x2174
    3764:	000a                	.insn	2, 0x000a
    3766:	0000                	.insn	2, 0x
    3768:	7420724f          	.insn	4, 0x7420724f
    376c:	7275                	.insn	2, 0x7275
    376e:	206e                	.insn	2, 0x206e
    3770:	2046464f          	.insn	4, 0x2046464f
    3774:	6c61                	.insn	2, 0x6c61
    3776:	206c                	.insn	2, 0x206c
    3778:	74697773          	csrrci	a4,0x746,18
    377c:	73656863          	bltu	a0,s6,3eac <__global_pointer+0x14ff>
    3780:	7420                	.insn	2, 0x7420
    3782:	6e69206f          	j	95e68 <__global_pointer+0x934bb>
    3786:	6574                	.insn	2, 0x6574
    3788:	6172                	.insn	2, 0x6172
    378a:	77207463          	bgeu	zero,s2,3ef2 <__global_pointer+0x1545>
    378e:	7469                	.insn	2, 0x7469
    3790:	2068                	.insn	2, 0x2068
    3792:	6f72                	.insn	2, 0x6f72
    3794:	0a2e6d6f          	jal	s10,e9836 <__global_pointer+0xe6e89>
    3798:	0000                	.insn	2, 0x
    379a:	0000                	.insn	2, 0x
    379c:	614c                	.insn	2, 0x614c
    379e:	6f62                	.insn	2, 0x6f62
    37a0:	6172                	.insn	2, 0x6172
    37a2:	6f74                	.insn	2, 0x6f74
    37a4:	7972                	.insn	2, 0x7972
    37a6:	0000                	.insn	2, 0x
    37a8:	636c6557          	.insn	4, 0x636c6557
    37ac:	20656d6f          	jal	s10,599b2 <__global_pointer+0x57005>
    37b0:	6f74                	.insn	2, 0x6f74
    37b2:	7420                	.insn	2, 0x7420
    37b4:	6568                	.insn	2, 0x6568
    37b6:	6520                	.insn	2, 0x6520
    37b8:	70616373          	csrrsi	t1,0x706,2
    37bc:	2065                	.insn	2, 0x2065
    37be:	6f72                	.insn	2, 0x6f72
    37c0:	202e6d6f          	jal	s10,e99c2 <__global_pointer+0xe7015>
    37c4:	6946                	.insn	2, 0x6946
    37c6:	646e                	.insn	2, 0x646e
    37c8:	6b20                	.insn	2, 0x6b20
    37ca:	7965                	.insn	2, 0x7965
    37cc:	73202c73          	csrr	s8,mhpmevent18h
    37d0:	65766c6f          	jal	s8,6a626 <__global_pointer+0x67c79>
    37d4:	7020                	.insn	2, 0x7020
    37d6:	7a75                	.insn	2, 0x7a75
    37d8:	6c7a                	.insn	2, 0x6c7a
    37da:	7365                	.insn	2, 0x7365
    37dc:	202c                	.insn	2, 0x202c
    37de:	6e61                	.insn	2, 0x6e61
    37e0:	2064                	.insn	2, 0x2064
    37e2:	7365                	.insn	2, 0x7365
    37e4:	65706163          	bltu	zero,s7,3e26 <__global_pointer+0x1479>
    37e8:	2021                	.insn	2, 0x2021
    37ea:	6f59                	.insn	2, 0x6f59
    37ec:	2075                	.insn	2, 0x2075
    37ee:	7261                	.insn	2, 0x7261
    37f0:	2065                	.insn	2, 0x2065
    37f2:	6e69                	.insn	2, 0x6e69
    37f4:	7420                	.insn	2, 0x7420
    37f6:	6568                	.insn	2, 0x6568
    37f8:	6c20                	.insn	2, 0x6c20
    37fa:	6261                	.insn	2, 0x6261
    37fc:	7461726f          	jal	tp,1af42 <__global_pointer+0x18595>
    3800:	2e79726f          	jal	tp,9b2e6 <__global_pointer+0x98939>
    3804:	5920                	.insn	2, 0x5920
    3806:	6320756f          	jal	a0,ae38 <__global_pointer+0x848b>
    380a:	6e61                	.insn	2, 0x6e61
    380c:	6720                	.insn	2, 0x6720
    380e:	6165206f          	j	55e24 <__global_pointer+0x53477>
    3812:	74207473          	csrrci	s0,0x742,0
    3816:	6874206f          	j	4669c <__global_pointer+0x43cef>
    381a:	2065                	.insn	2, 0x2065
    381c:	6148                	.insn	2, 0x6148
    381e:	6c6c                	.insn	2, 0x6c6c
    3820:	20796177          	.insn	4, 0x20796177
    3824:	7720726f          	jal	tp,af96 <__global_pointer+0x85e9>
    3828:	7365                	.insn	2, 0x7365
    382a:	2074                	.insn	2, 0x2074
    382c:	6f74                	.insn	2, 0x6f74
    382e:	7420                	.insn	2, 0x7420
    3830:	6568                	.insn	2, 0x6568
    3832:	5320                	.insn	2, 0x5320
    3834:	6f74                	.insn	2, 0x6f74
    3836:	6172                	.insn	2, 0x6172
    3838:	00006567          	.insn	4, 0x6567
    383c:	6f59                	.insn	2, 0x6f59
    383e:	2075                	.insn	2, 0x2075
    3840:	7261                	.insn	2, 0x7261
    3842:	2065                	.insn	2, 0x2065
    3844:	6e69                	.insn	2, 0x6e69
    3846:	7420                	.insn	2, 0x7420
    3848:	6568                	.insn	2, 0x6568
    384a:	4820                	.insn	2, 0x4820
    384c:	6c61                	.insn	2, 0x6c61
    384e:	776c                	.insn	2, 0x776c
    3850:	7961                	.insn	2, 0x7961
    3852:	202e                	.insn	2, 0x202e
    3854:	6f59                	.insn	2, 0x6f59
    3856:	2075                	.insn	2, 0x2075
    3858:	206e6163          	bltu	t3,t1,3a5a <__global_pointer+0x10ad>
    385c:	73206f67          	.insn	4, 0x73206f67
    3860:	6874756f          	jal	a0,4b6e6 <__global_pointer+0x48d39>
    3864:	7420                	.insn	2, 0x7420
    3866:	6874206f          	j	466ec <__global_pointer+0x43d3f>
    386a:	2065                	.insn	2, 0x2065
    386c:	6156                	.insn	2, 0x6156
    386e:	6c75                	.insn	2, 0x6c75
    3870:	2c74                	.insn	2, 0x2c74
    3872:	6520                	.insn	2, 0x6520
    3874:	7361                	.insn	2, 0x7361
    3876:	2074                	.insn	2, 0x2074
    3878:	6f74                	.insn	2, 0x6f74
    387a:	7420                	.insn	2, 0x7420
    387c:	6568                	.insn	2, 0x6568
    387e:	4220                	.insn	2, 0x4220
    3880:	2073736f          	jal	t1,3b286 <__global_pointer+0x388d9>
    3884:	6f52                	.insn	2, 0x6f52
    3886:	6f206d6f          	jal	s10,9f78 <__global_pointer+0x75cb>
    388a:	2072                	.insn	2, 0x2072
    388c:	74736577          	.insn	4, 0x74736577
    3890:	7420                	.insn	2, 0x7420
    3892:	6874206f          	j	46718 <__global_pointer+0x43d6b>
    3896:	2065                	.insn	2, 0x2065
    3898:	614c                	.insn	2, 0x614c
    389a:	6f62                	.insn	2, 0x6f62
    389c:	6172                	.insn	2, 0x6172
    389e:	6f74                	.insn	2, 0x6f74
    38a0:	7972                	.insn	2, 0x7972
    38a2:	0000                	.insn	2, 0x
    38a4:	6f59                	.insn	2, 0x6f59
    38a6:	2075                	.insn	2, 0x2075
    38a8:	7261                	.insn	2, 0x7261
    38aa:	2065                	.insn	2, 0x2065
    38ac:	6e69                	.insn	2, 0x6e69
    38ae:	7420                	.insn	2, 0x7420
    38b0:	6568                	.insn	2, 0x6568
    38b2:	5320                	.insn	2, 0x5320
    38b4:	6f74                	.insn	2, 0x6f74
    38b6:	6172                	.insn	2, 0x6172
    38b8:	202e6567          	.insn	4, 0x202e6567
    38bc:	6f59                	.insn	2, 0x6f59
    38be:	2075                	.insn	2, 0x2075
    38c0:	206e6163          	bltu	t3,t1,3ac2 <__global_pointer+0x1115>
    38c4:	6e206f67          	.insn	4, 0x6e206f67
    38c8:	6874726f          	jal	tp,4b74e <__global_pointer+0x48da1>
    38cc:	7420                	.insn	2, 0x7420
    38ce:	6874206f          	j	46754 <__global_pointer+0x43da7>
    38d2:	2065                	.insn	2, 0x2065
    38d4:	6966666f          	jal	a2,69f6a <__global_pointer+0x675bd>
    38d8:	6f206563          	bltu	zero,s2,3fc2 <__global_pointer+0x1615>
    38dc:	2072                	.insn	2, 0x2072
    38de:	6165                	.insn	2, 0x6165
    38e0:	74207473          	csrrci	s0,0x742,0
    38e4:	6874206f          	j	4676a <__global_pointer+0x43dbd>
    38e8:	2065                	.insn	2, 0x2065
    38ea:	614c                	.insn	2, 0x614c
    38ec:	6f62                	.insn	2, 0x6f62
    38ee:	6172                	.insn	2, 0x6172
    38f0:	6f74                	.insn	2, 0x6f74
    38f2:	7972                	.insn	2, 0x7972
    38f4:	0000                	.insn	2, 0x
    38f6:	0000                	.insn	2, 0x
    38f8:	6966664f          	.insn	4, 0x6966664f
    38fc:	00006563          	bltu	zero,zero,3906 <__global_pointer+0xf59>
    3900:	6f59                	.insn	2, 0x6f59
    3902:	2075                	.insn	2, 0x2075
    3904:	7261                	.insn	2, 0x7261
    3906:	2065                	.insn	2, 0x2065
    3908:	6e69                	.insn	2, 0x6e69
    390a:	7420                	.insn	2, 0x7420
    390c:	6568                	.insn	2, 0x6568
    390e:	4f20                	.insn	2, 0x4f20
    3910:	6666                	.insn	2, 0x6666
    3912:	6369                	.insn	2, 0x6369
    3914:	2e65                	.insn	2, 0x2e65
    3916:	5920                	.insn	2, 0x5920
    3918:	6320756f          	jal	a0,af4a <__global_pointer+0x859d>
    391c:	6e61                	.insn	2, 0x6e61
    391e:	6f20                	.insn	2, 0x6f20
    3920:	6c6e                	.insn	2, 0x6c6e
    3922:	2079                	.insn	2, 0x2079
    3924:	73206f67          	.insn	4, 0x73206f67
    3928:	6874756f          	jal	a0,4b7ae <__global_pointer+0x48e01>
    392c:	7420                	.insn	2, 0x7420
    392e:	6874206f          	j	467b4 <__global_pointer+0x43e07>
    3932:	2065                	.insn	2, 0x2065
    3934:	726f7453          	.insn	4, 0x726f7453
    3938:	6761                	.insn	2, 0x6761
    393a:	0065                	.insn	2, 0x0065
    393c:	6156                	.insn	2, 0x6156
    393e:	6c75                	.insn	2, 0x6c75
    3940:	0074                	.insn	2, 0x0074
    3942:	0000                	.insn	2, 0x
    3944:	6f59                	.insn	2, 0x6f59
    3946:	2075                	.insn	2, 0x2075
    3948:	7261                	.insn	2, 0x7261
    394a:	2065                	.insn	2, 0x2065
    394c:	6e69                	.insn	2, 0x6e69
    394e:	7420                	.insn	2, 0x7420
    3950:	6568                	.insn	2, 0x6568
    3952:	5620                	.insn	2, 0x5620
    3954:	7561                	.insn	2, 0x7561
    3956:	746c                	.insn	2, 0x746c
    3958:	202e                	.insn	2, 0x202e
    395a:	6f59                	.insn	2, 0x6f59
    395c:	2075                	.insn	2, 0x2075
    395e:	206e6163          	bltu	t3,t1,3b60 <__global_pointer+0x11b3>
    3962:	6e206f67          	.insn	4, 0x6e206f67
    3966:	6874726f          	jal	tp,4b7ec <__global_pointer+0x48e3f>
    396a:	7420                	.insn	2, 0x7420
    396c:	6874206f          	j	467f2 <__global_pointer+0x43e45>
    3970:	2065                	.insn	2, 0x2065
    3972:	6148                	.insn	2, 0x6148
    3974:	6c6c                	.insn	2, 0x6c6c
    3976:	20796177          	.insn	4, 0x20796177
    397a:	7320726f          	jal	tp,b0ac <__global_pointer+0x86ff>
    397e:	6874756f          	jal	a0,4b804 <__global_pointer+0x48e57>
    3982:	7420                	.insn	2, 0x7420
    3984:	6874206f          	j	4680a <__global_pointer+0x43e5d>
    3988:	2065                	.insn	2, 0x2065
    398a:	7845                	.insn	2, 0x7845
    398c:	7469                	.insn	2, 0x7469
    398e:	4420                	.insn	2, 0x4420
    3990:	00726f6f          	jal	t5,2a196 <__global_pointer+0x277e9>
    3994:	6f59                	.insn	2, 0x6f59
    3996:	2075                	.insn	2, 0x2075
    3998:	7261                	.insn	2, 0x7261
    399a:	2065                	.insn	2, 0x2065
    399c:	6e69                	.insn	2, 0x6e69
    399e:	7420                	.insn	2, 0x7420
    39a0:	6568                	.insn	2, 0x6568
    39a2:	4220                	.insn	2, 0x4220
    39a4:	2073736f          	jal	t1,3b3aa <__global_pointer+0x389fd>
    39a8:	6f52                	.insn	2, 0x6f52
    39aa:	202e6d6f          	jal	s10,e9bac <__global_pointer+0xe71ff>
    39ae:	6f59                	.insn	2, 0x6f59
    39b0:	2075                	.insn	2, 0x2075
    39b2:	206e6163          	bltu	t3,t1,3bb4 <__global_pointer+0x1207>
    39b6:	73206f67          	.insn	4, 0x73206f67
    39ba:	6874756f          	jal	a0,4b840 <__global_pointer+0x48e93>
    39be:	7420                	.insn	2, 0x7420
    39c0:	6874206f          	j	46846 <__global_pointer+0x43e99>
    39c4:	2065                	.insn	2, 0x2065
    39c6:	6f4c                	.insn	2, 0x6f4c
    39c8:	6e75                	.insn	2, 0x6e75
    39ca:	6f206567          	.insn	4, 0x6f206567
    39ce:	2072                	.insn	2, 0x2072
    39d0:	74736577          	.insn	4, 0x74736577
    39d4:	7420                	.insn	2, 0x7420
    39d6:	6874206f          	j	4685c <__global_pointer+0x43eaf>
    39da:	2065                	.insn	2, 0x2065
    39dc:	6148                	.insn	2, 0x6148
    39de:	6c6c                	.insn	2, 0x6c6c
    39e0:	00796177          	.insn	4, 0x00796177
    39e4:	6f4c                	.insn	2, 0x6f4c
    39e6:	6e75                	.insn	2, 0x6e75
    39e8:	00006567          	.insn	4, 0x6567
    39ec:	6f59                	.insn	2, 0x6f59
    39ee:	2075                	.insn	2, 0x2075
    39f0:	7261                	.insn	2, 0x7261
    39f2:	2065                	.insn	2, 0x2065
    39f4:	6e69                	.insn	2, 0x6e69
    39f6:	7420                	.insn	2, 0x7420
    39f8:	6568                	.insn	2, 0x6568
    39fa:	4c20                	.insn	2, 0x4c20
    39fc:	676e756f          	jal	a0,eb072 <__global_pointer+0xe86c5>
    3a00:	2e65                	.insn	2, 0x2e65
    3a02:	5920                	.insn	2, 0x5920
    3a04:	6320756f          	jal	a0,b036 <__global_pointer+0x8689>
    3a08:	6e61                	.insn	2, 0x6e61
    3a0a:	6f20                	.insn	2, 0x6f20
    3a0c:	6c6e                	.insn	2, 0x6c6e
    3a0e:	2079                	.insn	2, 0x2079
    3a10:	6e206f67          	.insn	4, 0x6e206f67
    3a14:	6874726f          	jal	tp,4b89a <__global_pointer+0x48eed>
    3a18:	7420                	.insn	2, 0x7420
    3a1a:	6874206f          	j	468a0 <__global_pointer+0x43ef3>
    3a1e:	2065                	.insn	2, 0x2065
    3a20:	6f42                	.insn	2, 0x6f42
    3a22:	52207373          	csrrci	t1,0x522,0
    3a26:	006d6f6f          	jal	t5,d9a2c <__global_pointer+0xd707f>
    3a2a:	0000                	.insn	2, 0x
    3a2c:	7845                	.insn	2, 0x7845
    3a2e:	7469                	.insn	2, 0x7469
    3a30:	4420                	.insn	2, 0x4420
    3a32:	00726f6f          	jal	t5,2a238 <__global_pointer+0x2788b>
    3a36:	0000                	.insn	2, 0x
    3a38:	6f59                	.insn	2, 0x6f59
    3a3a:	2075                	.insn	2, 0x2075
    3a3c:	7261                	.insn	2, 0x7261
    3a3e:	2065                	.insn	2, 0x2065
    3a40:	6e69                	.insn	2, 0x6e69
    3a42:	7420                	.insn	2, 0x7420
    3a44:	6568                	.insn	2, 0x6568
    3a46:	4520                	.insn	2, 0x4520
    3a48:	6978                	.insn	2, 0x6978
    3a4a:	2074                	.insn	2, 0x2074
    3a4c:	6f44                	.insn	2, 0x6f44
    3a4e:	202e726f          	jal	tp,eac50 <__global_pointer+0xe82a3>
    3a52:	6f59                	.insn	2, 0x6f59
    3a54:	2075                	.insn	2, 0x2075
    3a56:	206e6163          	bltu	t3,t1,3c58 <__global_pointer+0x12ab>
    3a5a:	6e206f67          	.insn	4, 0x6e206f67
    3a5e:	6874726f          	jal	tp,4b8e4 <__global_pointer+0x48f37>
    3a62:	7420                	.insn	2, 0x7420
    3a64:	6874206f          	j	468ea <__global_pointer+0x43f3d>
    3a68:	2065                	.insn	2, 0x2065
    3a6a:	6156                	.insn	2, 0x6156
    3a6c:	6c75                	.insn	2, 0x6c75
    3a6e:	2074                	.insn	2, 0x2074
    3a70:	7320726f          	jal	tp,b1a2 <__global_pointer+0x87f5>
    3a74:	6874756f          	jal	a0,4b8fa <__global_pointer+0x48f4d>
    3a78:	7420                	.insn	2, 0x7420
    3a7a:	6874206f          	j	46900 <__global_pointer+0x43f53>
    3a7e:	2065                	.insn	2, 0x2065
    3a80:	6c45                	.insn	2, 0x6c45
    3a82:	7665                	.insn	2, 0x7665
    3a84:	7461                	.insn	2, 0x7461
    3a86:	0000726f          	jal	tp,aa86 <__global_pointer+0x80d9>
    3a8a:	0000                	.insn	2, 0x
    3a8c:	6f59                	.insn	2, 0x6f59
    3a8e:	2075                	.insn	2, 0x2075
    3a90:	7261                	.insn	2, 0x7261
    3a92:	2065                	.insn	2, 0x2065
    3a94:	6e69                	.insn	2, 0x6e69
    3a96:	7420                	.insn	2, 0x7420
    3a98:	6568                	.insn	2, 0x6568
    3a9a:	4520                	.insn	2, 0x4520
    3a9c:	656c                	.insn	2, 0x656c
    3a9e:	6176                	.insn	2, 0x6176
    3aa0:	6f74                	.insn	2, 0x6f74
    3aa2:	2e72                	.insn	2, 0x2e72
    3aa4:	5920                	.insn	2, 0x5920
    3aa6:	6320756f          	jal	a0,b0d8 <__global_pointer+0x872b>
    3aaa:	6e61                	.insn	2, 0x6e61
    3aac:	6520                	.insn	2, 0x6520
    3aae:	70616373          	csrrsi	t1,0x706,2
    3ab2:	2065                	.insn	2, 0x2065
    3ab4:	6f6e                	.insn	2, 0x6f6e
    3ab6:	Address 0x3ab6 is out of bounds.


Disassembly of section .comment:

00000000 <.comment>:
   0:	3a434347          	.insn	4, 0x3a434347
   4:	2820                	.insn	2, 0x2820
   6:	2029                	.insn	2, 0x2029
   8:	3331                	.insn	2, 0x3331
   a:	322e                	.insn	2, 0x322e
   c:	302e                	.insn	2, 0x302e
	...

Disassembly of section .riscv.attributes:

00000000 <.riscv.attributes>:
   0:	3641                	.insn	2, 0x3641
   2:	0000                	.insn	2, 0x
   4:	7200                	.insn	2, 0x7200
   6:	7369                	.insn	2, 0x7369
   8:	01007663          	bgeu	zero,a6,14 <_isr_routine+0xc>
   c:	002c                	.insn	2, 0x002c
   e:	0000                	.insn	2, 0x
  10:	1004                	.insn	2, 0x1004
  12:	7205                	.insn	2, 0x7205
  14:	3376                	.insn	2, 0x3376
  16:	6932                	.insn	2, 0x6932
  18:	7032                	.insn	2, 0x7032
  1a:	5f31                	.insn	2, 0x5f31
  1c:	326d                	.insn	2, 0x326d
  1e:	3070                	.insn	2, 0x3070
  20:	7a5f 6369 7273      	.insn	6, 0x727363697a5f
  26:	7032                	.insn	2, 0x7032
  28:	5f30                	.insn	2, 0x5f30
  2a:	6d7a                	.insn	2, 0x6d7a
  2c:	756d                	.insn	2, 0x756d
  2e:	316c                	.insn	2, 0x316c
  30:	3070                	.insn	2, 0x3070
  32:	0800                	.insn	2, 0x0800
  34:	0a01                	.insn	2, 0x0a01
  36:	Address 0x36 is out of bounds.

